
MazeSolverFinal.elf:     file format elf32-avr

Sections:
Idx Name          Size      VMA       LMA       File off  Algn
  0 .data         00000060  00800100  00001d0e  00001da2  2**0
                  CONTENTS, ALLOC, LOAD, DATA
  1 .text         00001d0e  00000000  00000000  00000094  2**1
                  CONTENTS, ALLOC, LOAD, READONLY, CODE
  2 .bss          00000079  00800160  00800160  00001e02  2**0
                  ALLOC
  3 .comment      0000005c  00000000  00000000  00001e02  2**0
                  CONTENTS, READONLY
  4 .note.gnu.avr.deviceinfo 00000040  00000000  00000000  00001e60  2**2
                  CONTENTS, READONLY
  5 .debug_aranges 00000210  00000000  00000000  00001ea0  2**0
                  CONTENTS, READONLY, DEBUGGING
  6 .debug_info   00002f47  00000000  00000000  000020b0  2**0
                  CONTENTS, READONLY, DEBUGGING
  7 .debug_abbrev 0000129f  00000000  00000000  00004ff7  2**0
                  CONTENTS, READONLY, DEBUGGING
  8 .debug_line   000017b9  00000000  00000000  00006296  2**0
                  CONTENTS, READONLY, DEBUGGING
  9 .debug_frame  0000055c  00000000  00000000  00007a50  2**2
                  CONTENTS, READONLY, DEBUGGING
 10 .debug_str    00000b5a  00000000  00000000  00007fac  2**0
                  CONTENTS, READONLY, DEBUGGING
 11 .debug_loc    00001cf8  00000000  00000000  00008b06  2**0
                  CONTENTS, READONLY, DEBUGGING
 12 .debug_ranges 00000230  00000000  00000000  0000a7fe  2**0
                  CONTENTS, READONLY, DEBUGGING

Disassembly of section .text:

00000000 <__vectors>:
       0:	0c 94 46 01 	jmp	0x28c	; 0x28c <__ctors_end>
       4:	0c 94 63 01 	jmp	0x2c6	; 0x2c6 <__bad_interrupt>
       8:	0c 94 63 01 	jmp	0x2c6	; 0x2c6 <__bad_interrupt>
       c:	0c 94 63 01 	jmp	0x2c6	; 0x2c6 <__bad_interrupt>
      10:	0c 94 63 01 	jmp	0x2c6	; 0x2c6 <__bad_interrupt>
      14:	0c 94 63 01 	jmp	0x2c6	; 0x2c6 <__bad_interrupt>
      18:	0c 94 63 01 	jmp	0x2c6	; 0x2c6 <__bad_interrupt>
      1c:	0c 94 63 01 	jmp	0x2c6	; 0x2c6 <__bad_interrupt>
      20:	0c 94 63 01 	jmp	0x2c6	; 0x2c6 <__bad_interrupt>
      24:	0c 94 63 01 	jmp	0x2c6	; 0x2c6 <__bad_interrupt>
      28:	0c 94 63 01 	jmp	0x2c6	; 0x2c6 <__bad_interrupt>
      2c:	0c 94 63 01 	jmp	0x2c6	; 0x2c6 <__bad_interrupt>
      30:	0c 94 63 01 	jmp	0x2c6	; 0x2c6 <__bad_interrupt>
      34:	0c 94 63 01 	jmp	0x2c6	; 0x2c6 <__bad_interrupt>
      38:	0c 94 63 01 	jmp	0x2c6	; 0x2c6 <__bad_interrupt>
      3c:	0c 94 63 01 	jmp	0x2c6	; 0x2c6 <__bad_interrupt>
      40:	0c 94 63 01 	jmp	0x2c6	; 0x2c6 <__bad_interrupt>
      44:	0c 94 63 01 	jmp	0x2c6	; 0x2c6 <__bad_interrupt>
      48:	0c 94 63 01 	jmp	0x2c6	; 0x2c6 <__bad_interrupt>
      4c:	0c 94 63 01 	jmp	0x2c6	; 0x2c6 <__bad_interrupt>
      50:	0c 94 63 01 	jmp	0x2c6	; 0x2c6 <__bad_interrupt>
      54:	0c 94 63 01 	jmp	0x2c6	; 0x2c6 <__bad_interrupt>
      58:	0c 94 63 01 	jmp	0x2c6	; 0x2c6 <__bad_interrupt>
      5c:	0c 94 63 01 	jmp	0x2c6	; 0x2c6 <__bad_interrupt>
      60:	0c 94 63 01 	jmp	0x2c6	; 0x2c6 <__bad_interrupt>
      64:	0c 94 63 01 	jmp	0x2c6	; 0x2c6 <__bad_interrupt>
      68:	0c 94 63 01 	jmp	0x2c6	; 0x2c6 <__bad_interrupt>
      6c:	0c 94 63 01 	jmp	0x2c6	; 0x2c6 <__bad_interrupt>
      70:	0c 94 63 01 	jmp	0x2c6	; 0x2c6 <__bad_interrupt>
      74:	0c 94 63 01 	jmp	0x2c6	; 0x2c6 <__bad_interrupt>
      78:	0c 94 63 01 	jmp	0x2c6	; 0x2c6 <__bad_interrupt>
      7c:	0c 94 63 01 	jmp	0x2c6	; 0x2c6 <__bad_interrupt>
      80:	0c 94 63 01 	jmp	0x2c6	; 0x2c6 <__bad_interrupt>
      84:	0c 94 63 01 	jmp	0x2c6	; 0x2c6 <__bad_interrupt>
      88:	0c 94 63 01 	jmp	0x2c6	; 0x2c6 <__bad_interrupt>
      8c:	0c 94 63 01 	jmp	0x2c6	; 0x2c6 <__bad_interrupt>
      90:	0c 94 63 01 	jmp	0x2c6	; 0x2c6 <__bad_interrupt>
      94:	0c 94 63 01 	jmp	0x2c6	; 0x2c6 <__bad_interrupt>
      98:	0c 94 63 01 	jmp	0x2c6	; 0x2c6 <__bad_interrupt>
      9c:	0c 94 63 01 	jmp	0x2c6	; 0x2c6 <__bad_interrupt>
      a0:	0c 94 63 01 	jmp	0x2c6	; 0x2c6 <__bad_interrupt>
      a4:	0c 94 63 01 	jmp	0x2c6	; 0x2c6 <__bad_interrupt>
      a8:	0c 94 63 01 	jmp	0x2c6	; 0x2c6 <__bad_interrupt>

000000ac <__trampolines_end>:
      ac:	00 00       	nop
      ae:	00 00       	nop
      b0:	00 00       	nop
      b2:	00 4f       	sbci	r16, 0xF0	; 240
      b4:	00 00       	nop
      b6:	00 07       	cpc	r16, r16
      b8:	00 07       	cpc	r16, r16
      ba:	00 14       	cp	r0, r0
      bc:	7f 14       	cp	r7, r15
      be:	7f 14       	cp	r7, r15
      c0:	24 2a       	or	r2, r20
      c2:	7f 2a       	or	r7, r31
      c4:	12 23       	and	r17, r18
      c6:	13 08       	sbc	r1, r3
      c8:	64 62       	ori	r22, 0x24	; 36
      ca:	36 49       	sbci	r19, 0x96	; 150
      cc:	55 22       	and	r5, r21
      ce:	50 00       	.word	0x0050	; ????
      d0:	00 07       	cpc	r16, r16
      d2:	00 00       	nop
      d4:	00 1c       	adc	r0, r0
      d6:	22 41       	sbci	r18, 0x12	; 18
      d8:	00 00       	nop
      da:	41 22       	and	r4, r17
      dc:	1c 00       	.word	0x001c	; ????
      de:	14 08       	sbc	r1, r4
      e0:	3e 08       	sbc	r3, r14
      e2:	14 08       	sbc	r1, r4
      e4:	08 3e       	cpi	r16, 0xE8	; 232
      e6:	08 08       	sbc	r0, r8
      e8:	00 50       	subi	r16, 0x00	; 0
      ea:	30 00       	.word	0x0030	; ????
      ec:	00 08       	sbc	r0, r0
      ee:	08 08       	sbc	r0, r8
      f0:	08 08       	sbc	r0, r8
      f2:	00 60       	ori	r16, 0x00	; 0
      f4:	60 00       	.word	0x0060	; ????
      f6:	00 20       	and	r0, r0
      f8:	10 08       	sbc	r1, r0
      fa:	04 02       	muls	r16, r20
      fc:	3e 51       	subi	r19, 0x1E	; 30
      fe:	49 45       	sbci	r20, 0x59	; 89
     100:	3e 00       	.word	0x003e	; ????
     102:	42 7f       	andi	r20, 0xF2	; 242
     104:	40 00       	.word	0x0040	; ????
     106:	42 61       	ori	r20, 0x12	; 18
     108:	51 49       	sbci	r21, 0x91	; 145
     10a:	46 21       	and	r20, r6
     10c:	41 45       	sbci	r20, 0x51	; 81
     10e:	4b 31       	cpi	r20, 0x1B	; 27
     110:	18 14       	cp	r1, r8
     112:	12 7f       	andi	r17, 0xF2	; 242
     114:	10 27       	eor	r17, r16
     116:	45 45       	sbci	r20, 0x55	; 85
     118:	45 39       	cpi	r20, 0x95	; 149
     11a:	3c 4a       	sbci	r19, 0xAC	; 172
     11c:	49 49       	sbci	r20, 0x99	; 153
     11e:	30 03       	mulsu	r19, r16
     120:	01 71       	andi	r16, 0x11	; 17
     122:	09 07       	cpc	r16, r25
     124:	36 49       	sbci	r19, 0x96	; 150
     126:	49 49       	sbci	r20, 0x99	; 153
     128:	36 06       	cpc	r3, r22
     12a:	49 49       	sbci	r20, 0x99	; 153
     12c:	29 1e       	adc	r2, r25
     12e:	00 36       	cpi	r16, 0x60	; 96
     130:	36 00       	.word	0x0036	; ????
     132:	00 00       	nop
     134:	56 36       	cpi	r21, 0x66	; 102
     136:	00 00       	nop
     138:	08 14       	cp	r0, r8
     13a:	22 41       	sbci	r18, 0x12	; 18
     13c:	00 14       	cp	r0, r0
     13e:	14 14       	cp	r1, r4
     140:	14 14       	cp	r1, r4
     142:	00 41       	sbci	r16, 0x10	; 16
     144:	22 14       	cp	r2, r2
     146:	08 02       	muls	r16, r24
     148:	01 51       	subi	r16, 0x11	; 17
     14a:	09 06       	cpc	r0, r25
     14c:	32 49       	sbci	r19, 0x92	; 146
     14e:	79 41       	sbci	r23, 0x19	; 25
     150:	3e 7e       	andi	r19, 0xEE	; 238
     152:	11 11       	cpse	r17, r1
     154:	11 7e       	andi	r17, 0xE1	; 225
     156:	7f 49       	sbci	r23, 0x9F	; 159
     158:	49 49       	sbci	r20, 0x99	; 153
     15a:	36 3e       	cpi	r19, 0xE6	; 230
     15c:	41 41       	sbci	r20, 0x11	; 17
     15e:	41 22       	and	r4, r17
     160:	7f 41       	sbci	r23, 0x1F	; 31
     162:	41 41       	sbci	r20, 0x11	; 17
     164:	3e 7f       	andi	r19, 0xFE	; 254
     166:	49 49       	sbci	r20, 0x99	; 153
     168:	49 41       	sbci	r20, 0x19	; 25
     16a:	7f 09       	sbc	r23, r15
     16c:	09 09       	sbc	r16, r9
     16e:	01 3e       	cpi	r16, 0xE1	; 225
     170:	41 49       	sbci	r20, 0x91	; 145
     172:	49 7a       	andi	r20, 0xA9	; 169
     174:	7f 08       	sbc	r7, r15
     176:	08 08       	sbc	r0, r8
     178:	7f 00       	.word	0x007f	; ????
     17a:	41 7f       	andi	r20, 0xF1	; 241
     17c:	41 00       	.word	0x0041	; ????
     17e:	20 40       	sbci	r18, 0x00	; 0
     180:	41 3f       	cpi	r20, 0xF1	; 241
     182:	01 7f       	andi	r16, 0xF1	; 241
     184:	08 14       	cp	r0, r8
     186:	22 41       	sbci	r18, 0x12	; 18
     188:	7f 40       	sbci	r23, 0x0F	; 15
     18a:	40 40       	sbci	r20, 0x00	; 0
     18c:	40 7f       	andi	r20, 0xF0	; 240
     18e:	02 0c       	add	r0, r2
     190:	02 7f       	andi	r16, 0xF2	; 242
     192:	7f 04       	cpc	r7, r15
     194:	08 10       	cpse	r0, r8
     196:	7f 3e       	cpi	r23, 0xEF	; 239
     198:	41 41       	sbci	r20, 0x11	; 17
     19a:	41 3e       	cpi	r20, 0xE1	; 225
     19c:	7f 09       	sbc	r23, r15
     19e:	09 09       	sbc	r16, r9
     1a0:	06 3e       	cpi	r16, 0xE6	; 230
     1a2:	41 51       	subi	r20, 0x11	; 17
     1a4:	21 5e       	subi	r18, 0xE1	; 225
     1a6:	7f 09       	sbc	r23, r15
     1a8:	19 29       	or	r17, r9
     1aa:	46 46       	sbci	r20, 0x66	; 102
     1ac:	49 49       	sbci	r20, 0x99	; 153
     1ae:	49 31       	cpi	r20, 0x19	; 25
     1b0:	01 01       	movw	r0, r2
     1b2:	7f 01       	movw	r14, r30
     1b4:	01 3f       	cpi	r16, 0xF1	; 241
     1b6:	40 40       	sbci	r20, 0x00	; 0
     1b8:	40 3f       	cpi	r20, 0xF0	; 240
     1ba:	1f 20       	and	r1, r15
     1bc:	40 20       	and	r4, r0
     1be:	1f 3f       	cpi	r17, 0xFF	; 255
     1c0:	40 38       	cpi	r20, 0x80	; 128
     1c2:	40 3f       	cpi	r20, 0xF0	; 240
     1c4:	63 14       	cp	r6, r3
     1c6:	08 14       	cp	r0, r8
     1c8:	63 07       	cpc	r22, r19
     1ca:	08 70       	andi	r16, 0x08	; 8
     1cc:	08 07       	cpc	r16, r24
     1ce:	61 51       	subi	r22, 0x11	; 17
     1d0:	49 45       	sbci	r20, 0x59	; 89
     1d2:	43 00       	.word	0x0043	; ????
     1d4:	7f 41       	sbci	r23, 0x1F	; 31
     1d6:	41 00       	.word	0x0041	; ????
     1d8:	02 04       	cpc	r0, r2
     1da:	08 10       	cpse	r0, r8
     1dc:	20 00       	.word	0x0020	; ????
     1de:	41 41       	sbci	r20, 0x11	; 17
     1e0:	7f 00       	.word	0x007f	; ????
     1e2:	04 02       	muls	r16, r20
     1e4:	01 02       	muls	r16, r17
     1e6:	04 40       	sbci	r16, 0x04	; 4
     1e8:	40 40       	sbci	r20, 0x00	; 0
     1ea:	40 40       	sbci	r20, 0x00	; 0
     1ec:	00 01       	movw	r0, r0
     1ee:	02 04       	cpc	r0, r2
     1f0:	00 20       	and	r0, r0
     1f2:	54 54       	subi	r21, 0x44	; 68
     1f4:	54 78       	andi	r21, 0x84	; 132
     1f6:	7f 48       	sbci	r23, 0x8F	; 143
     1f8:	44 44       	sbci	r20, 0x44	; 68
     1fa:	38 38       	cpi	r19, 0x88	; 136
     1fc:	44 44       	sbci	r20, 0x44	; 68
     1fe:	44 20       	and	r4, r4
     200:	38 44       	sbci	r19, 0x48	; 72
     202:	44 48       	sbci	r20, 0x84	; 132
     204:	7f 38       	cpi	r23, 0x8F	; 143
     206:	54 54       	subi	r21, 0x44	; 68
     208:	54 18       	sub	r5, r4
     20a:	08 7e       	andi	r16, 0xE8	; 232
     20c:	09 01       	movw	r0, r18
     20e:	02 0c       	add	r0, r2
     210:	52 52       	subi	r21, 0x22	; 34
     212:	52 3e       	cpi	r21, 0xE2	; 226
     214:	7f 08       	sbc	r7, r15
     216:	04 04       	cpc	r0, r4
     218:	78 00       	.word	0x0078	; ????
     21a:	44 7d       	andi	r20, 0xD4	; 212
     21c:	40 00       	.word	0x0040	; ????
     21e:	20 40       	sbci	r18, 0x00	; 0
     220:	44 3d       	cpi	r20, 0xD4	; 212
     222:	00 7f       	andi	r16, 0xF0	; 240
     224:	10 28       	or	r1, r0
     226:	44 00       	.word	0x0044	; ????
     228:	00 41       	sbci	r16, 0x10	; 16
     22a:	7f 40       	sbci	r23, 0x0F	; 15
     22c:	00 7c       	andi	r16, 0xC0	; 192
     22e:	04 18       	sub	r0, r4
     230:	04 78       	andi	r16, 0x84	; 132
     232:	7c 08       	sbc	r7, r12
     234:	04 04       	cpc	r0, r4
     236:	78 38       	cpi	r23, 0x88	; 136
     238:	44 44       	sbci	r20, 0x44	; 68
     23a:	44 38       	cpi	r20, 0x84	; 132
     23c:	7c 14       	cp	r7, r12
     23e:	14 14       	cp	r1, r4
     240:	08 08       	sbc	r0, r8
     242:	14 14       	cp	r1, r4
     244:	18 7c       	andi	r17, 0xC8	; 200
     246:	7c 08       	sbc	r7, r12
     248:	04 04       	cpc	r0, r4
     24a:	08 48       	sbci	r16, 0x88	; 136
     24c:	54 54       	subi	r21, 0x44	; 68
     24e:	54 20       	and	r5, r4
     250:	04 3f       	cpi	r16, 0xF4	; 244
     252:	44 40       	sbci	r20, 0x04	; 4
     254:	20 3c       	cpi	r18, 0xC0	; 192
     256:	40 40       	sbci	r20, 0x00	; 0
     258:	20 7c       	andi	r18, 0xC0	; 192
     25a:	1c 20       	and	r1, r12
     25c:	40 20       	and	r4, r0
     25e:	1c 3c       	cpi	r17, 0xCC	; 204
     260:	40 38       	cpi	r20, 0x80	; 128
     262:	40 3c       	cpi	r20, 0xC0	; 192
     264:	44 28       	or	r4, r4
     266:	10 28       	or	r1, r0
     268:	44 0c       	add	r4, r4
     26a:	50 50       	subi	r21, 0x00	; 0
     26c:	50 3c       	cpi	r21, 0xC0	; 192
     26e:	44 64       	ori	r20, 0x44	; 68
     270:	54 4c       	sbci	r21, 0xC4	; 196
     272:	44 00       	.word	0x0044	; ????
     274:	08 36       	cpi	r16, 0x68	; 104
     276:	41 00       	.word	0x0041	; ????
     278:	00 00       	nop
     27a:	7f 00       	.word	0x007f	; ????
     27c:	00 00       	nop
     27e:	41 36       	cpi	r20, 0x61	; 97
     280:	08 00       	.word	0x0008	; ????
     282:	0c 02       	muls	r16, r28
     284:	04 08       	sbc	r0, r4
     286:	06 08       	sbc	r0, r6
     288:	1c 2a       	or	r1, r28
     28a:	08 08       	sbc	r0, r8

0000028c <__ctors_end>:
     28c:	11 24       	eor	r1, r1
     28e:	1f be       	out	0x3f, r1	; 63
     290:	cf ef       	ldi	r28, 0xFF	; 255
     292:	da e0       	ldi	r29, 0x0A	; 10
     294:	de bf       	out	0x3e, r29	; 62
     296:	cd bf       	out	0x3d, r28	; 61

00000298 <__do_copy_data>:
     298:	11 e0       	ldi	r17, 0x01	; 1
     29a:	a0 e0       	ldi	r26, 0x00	; 0
     29c:	b1 e0       	ldi	r27, 0x01	; 1
     29e:	ee e0       	ldi	r30, 0x0E	; 14
     2a0:	fd e1       	ldi	r31, 0x1D	; 29
     2a2:	02 c0       	rjmp	.+4      	; 0x2a8 <__do_copy_data+0x10>
     2a4:	05 90       	lpm	r0, Z+
     2a6:	0d 92       	st	X+, r0
     2a8:	a0 36       	cpi	r26, 0x60	; 96
     2aa:	b1 07       	cpc	r27, r17
     2ac:	d9 f7       	brne	.-10     	; 0x2a4 <__do_copy_data+0xc>

000002ae <__do_clear_bss>:
     2ae:	21 e0       	ldi	r18, 0x01	; 1
     2b0:	a0 e6       	ldi	r26, 0x60	; 96
     2b2:	b1 e0       	ldi	r27, 0x01	; 1
     2b4:	01 c0       	rjmp	.+2      	; 0x2b8 <.do_clear_bss_start>

000002b6 <.do_clear_bss_loop>:
     2b6:	1d 92       	st	X+, r1

000002b8 <.do_clear_bss_start>:
     2b8:	a9 3d       	cpi	r26, 0xD9	; 217
     2ba:	b2 07       	cpc	r27, r18
     2bc:	e1 f7       	brne	.-8      	; 0x2b6 <.do_clear_bss_loop>
     2be:	0e 94 62 09 	call	0x12c4	; 0x12c4 <main>
     2c2:	0c 94 85 0e 	jmp	0x1d0a	; 0x1d0a <_exit>

000002c6 <__bad_interrupt>:
     2c6:	0c 94 00 00 	jmp	0	; 0x0 <__vectors>

000002ca <normalize_from>:
	if (us > 32767) us = 32767;
	timeout_us    = us;
	timeout_ticks = (uint16_t)(us * 2u); // 0.5 µs / tick
}

uint16_t line_sensors_get_timeout_us(void) { return timeout_us; }
     2ca:	9f 92       	push	r9
     2cc:	af 92       	push	r10
     2ce:	bf 92       	push	r11
     2d0:	cf 92       	push	r12
     2d2:	df 92       	push	r13
     2d4:	ef 92       	push	r14
     2d6:	ff 92       	push	r15
     2d8:	0f 93       	push	r16
     2da:	1f 93       	push	r17
     2dc:	cf 93       	push	r28
     2de:	df 93       	push	r29
     2e0:	6c 01       	movw	r12, r24
     2e2:	5b 01       	movw	r10, r22
     2e4:	7a 01       	movw	r14, r20
     2e6:	89 01       	movw	r16, r18
     2e8:	91 2c       	mov	r9, r1
     2ea:	40 c0       	rjmp	.+128    	; 0x36c <normalize_from+0xa2>
     2ec:	c9 2d       	mov	r28, r9
     2ee:	d0 e0       	ldi	r29, 0x00	; 0
     2f0:	cc 0f       	add	r28, r28
     2f2:	dd 1f       	adc	r29, r29
     2f4:	f7 01       	movw	r30, r14
     2f6:	ec 0f       	add	r30, r28
     2f8:	fd 1f       	adc	r31, r29
     2fa:	01 90       	ld	r0, Z+
     2fc:	f0 81       	ld	r31, Z
     2fe:	e0 2d       	mov	r30, r0
     300:	d8 01       	movw	r26, r16
     302:	ac 0f       	add	r26, r28
     304:	bd 1f       	adc	r27, r29
     306:	4d 91       	ld	r20, X+
     308:	5c 91       	ld	r21, X
     30a:	d6 01       	movw	r26, r12
     30c:	ac 0f       	add	r26, r28
     30e:	bd 1f       	adc	r27, r29
     310:	2d 91       	ld	r18, X+
     312:	3c 91       	ld	r19, X
     314:	e4 17       	cp	r30, r20
     316:	f5 07       	cpc	r31, r21
     318:	28 f0       	brcs	.+10     	; 0x324 <normalize_from+0x5a>
     31a:	ca 0d       	add	r28, r10
     31c:	db 1d       	adc	r29, r11
     31e:	19 82       	std	Y+1, r1	; 0x01
     320:	18 82       	st	Y, r1
     322:	23 c0       	rjmp	.+70     	; 0x36a <normalize_from+0xa0>
     324:	e2 17       	cp	r30, r18
     326:	f3 07       	cpc	r31, r19
     328:	28 f0       	brcs	.+10     	; 0x334 <normalize_from+0x6a>
     32a:	ca 0d       	add	r28, r10
     32c:	db 1d       	adc	r29, r11
     32e:	19 82       	std	Y+1, r1	; 0x01
     330:	18 82       	st	Y, r1
     332:	1b c0       	rjmp	.+54     	; 0x36a <normalize_from+0xa0>
     334:	24 17       	cp	r18, r20
     336:	35 07       	cpc	r19, r21
     338:	38 f0       	brcs	.+14     	; 0x348 <normalize_from+0x7e>
     33a:	ca 0d       	add	r28, r10
     33c:	db 1d       	adc	r29, r11
     33e:	88 ee       	ldi	r24, 0xE8	; 232
     340:	93 e0       	ldi	r25, 0x03	; 3
     342:	99 83       	std	Y+1, r25	; 0x01
     344:	88 83       	st	Y, r24
     346:	11 c0       	rjmp	.+34     	; 0x36a <normalize_from+0xa0>
     348:	ca 0d       	add	r28, r10
     34a:	db 1d       	adc	r29, r11
     34c:	2e 1b       	sub	r18, r30
     34e:	3f 0b       	sbc	r19, r31
     350:	a8 ee       	ldi	r26, 0xE8	; 232
     352:	b3 e0       	ldi	r27, 0x03	; 3
     354:	0e 94 5f 0b 	call	0x16be	; 0x16be <__umulhisi3>
     358:	9a 01       	movw	r18, r20
     35a:	2e 1b       	sub	r18, r30
     35c:	3f 0b       	sbc	r19, r31
     35e:	40 e0       	ldi	r20, 0x00	; 0
     360:	50 e0       	ldi	r21, 0x00	; 0
     362:	0e 94 1e 0b 	call	0x163c	; 0x163c <__udivmodsi4>
     366:	39 83       	std	Y+1, r19	; 0x01
     368:	28 83       	st	Y, r18
     36a:	93 94       	inc	r9
     36c:	84 e0       	ldi	r24, 0x04	; 4
     36e:	89 15       	cp	r24, r9
     370:	08 f0       	brcs	.+2      	; 0x374 <normalize_from+0xaa>
     372:	bc cf       	rjmp	.-136    	; 0x2ec <normalize_from+0x22>
     374:	df 91       	pop	r29
     376:	cf 91       	pop	r28
     378:	1f 91       	pop	r17
     37a:	0f 91       	pop	r16
     37c:	ff 90       	pop	r15
     37e:	ef 90       	pop	r14
     380:	df 90       	pop	r13
     382:	cf 90       	pop	r12
     384:	bf 90       	pop	r11
     386:	af 90       	pop	r10
     388:	9f 90       	pop	r9
     38a:	08 95       	ret

0000038c <read_raw_ticks>:
     38c:	fc 01       	movw	r30, r24
     38e:	61 30       	cpi	r22, 0x01	; 1
     390:	39 f4       	brne	.+14     	; 0x3a0 <read_raw_ticks+0x14>
     392:	84 b1       	in	r24, 0x04	; 4
     394:	80 68       	ori	r24, 0x80	; 128
     396:	84 b9       	out	0x04, r24	; 4
     398:	85 b1       	in	r24, 0x05	; 5
     39a:	80 68       	ori	r24, 0x80	; 128
     39c:	85 b9       	out	0x05, r24	; 5
     39e:	05 c0       	rjmp	.+10     	; 0x3aa <read_raw_ticks+0x1e>
     3a0:	61 11       	cpse	r22, r1
     3a2:	03 c0       	rjmp	.+6      	; 0x3aa <read_raw_ticks+0x1e>
     3a4:	84 b1       	in	r24, 0x04	; 4
     3a6:	8f 77       	andi	r24, 0x7F	; 127
     3a8:	84 b9       	out	0x04, r24	; 4
     3aa:	8a b1       	in	r24, 0x0a	; 10
     3ac:	80 64       	ori	r24, 0x40	; 64
     3ae:	8a b9       	out	0x0a, r24	; 10
     3b0:	8b b1       	in	r24, 0x0b	; 11
     3b2:	80 64       	ori	r24, 0x40	; 64
     3b4:	8b b9       	out	0x0b, r24	; 11
     3b6:	80 b3       	in	r24, 0x10	; 16
     3b8:	82 6b       	ori	r24, 0xB2	; 178
     3ba:	80 bb       	out	0x10, r24	; 16
     3bc:	81 b3       	in	r24, 0x11	; 17
     3be:	82 6b       	ori	r24, 0xB2	; 178
     3c0:	81 bb       	out	0x11, r24	; 17
     3c2:	85 e3       	ldi	r24, 0x35	; 53
     3c4:	8a 95       	dec	r24
     3c6:	f1 f7       	brne	.-4      	; 0x3c4 <read_raw_ticks+0x38>
     3c8:	00 00       	nop
     3ca:	10 92 95 00 	sts	0x0095, r1	; 0x800095 <__TEXT_REGION_LENGTH__+0x7f8095>
     3ce:	10 92 94 00 	sts	0x0094, r1	; 0x800094 <__TEXT_REGION_LENGTH__+0x7f8094>
     3d2:	8a b1       	in	r24, 0x0a	; 10
     3d4:	8f 7b       	andi	r24, 0xBF	; 191
     3d6:	8a b9       	out	0x0a, r24	; 10
     3d8:	80 b3       	in	r24, 0x10	; 16
     3da:	8d 74       	andi	r24, 0x4D	; 77
     3dc:	80 bb       	out	0x10, r24	; 16
     3de:	8b b1       	in	r24, 0x0b	; 11
     3e0:	8f 7b       	andi	r24, 0xBF	; 191
     3e2:	8b b9       	out	0x0b, r24	; 11
     3e4:	81 b3       	in	r24, 0x11	; 17
     3e6:	8d 74       	andi	r24, 0x4D	; 77
     3e8:	81 bb       	out	0x11, r24	; 17
     3ea:	a0 91 8c 01 	lds	r26, 0x018C	; 0x80018c <timeout_ticks>
     3ee:	b0 91 8d 01 	lds	r27, 0x018D	; 0x80018d <timeout_ticks+0x1>
     3f2:	b1 87       	std	Z+9, r27	; 0x09
     3f4:	a0 87       	std	Z+8, r26	; 0x08
     3f6:	b7 83       	std	Z+7, r27	; 0x07
     3f8:	a6 83       	std	Z+6, r26	; 0x06
     3fa:	b5 83       	std	Z+5, r27	; 0x05
     3fc:	a4 83       	std	Z+4, r26	; 0x04
     3fe:	b3 83       	std	Z+3, r27	; 0x03
     400:	a2 83       	std	Z+2, r26	; 0x02
     402:	b1 83       	std	Z+1, r27	; 0x01
     404:	a0 83       	st	Z, r26
     406:	9f e1       	ldi	r25, 0x1F	; 31
     408:	29 c0       	rjmp	.+82     	; 0x45c <__EEPROM_REGION_LENGTH__+0x5c>
     40a:	89 b1       	in	r24, 0x09	; 9
     40c:	2f b1       	in	r18, 0x0f	; 15
     40e:	40 91 94 00 	lds	r20, 0x0094	; 0x800094 <__TEXT_REGION_LENGTH__+0x7f8094>
     412:	50 91 95 00 	lds	r21, 0x0095	; 0x800095 <__TEXT_REGION_LENGTH__+0x7f8095>
     416:	90 ff       	sbrs	r25, 0
     418:	05 c0       	rjmp	.+10     	; 0x424 <__EEPROM_REGION_LENGTH__+0x24>
     41a:	86 fd       	sbrc	r24, 6
     41c:	03 c0       	rjmp	.+6      	; 0x424 <__EEPROM_REGION_LENGTH__+0x24>
     41e:	51 83       	std	Z+1, r21	; 0x01
     420:	40 83       	st	Z, r20
     422:	9e 7f       	andi	r25, 0xFE	; 254
     424:	91 ff       	sbrs	r25, 1
     426:	05 c0       	rjmp	.+10     	; 0x432 <__EEPROM_REGION_LENGTH__+0x32>
     428:	22 23       	and	r18, r18
     42a:	1c f0       	brlt	.+6      	; 0x432 <__EEPROM_REGION_LENGTH__+0x32>
     42c:	53 83       	std	Z+3, r21	; 0x03
     42e:	42 83       	std	Z+2, r20	; 0x02
     430:	9d 7f       	andi	r25, 0xFD	; 253
     432:	92 ff       	sbrs	r25, 2
     434:	05 c0       	rjmp	.+10     	; 0x440 <__EEPROM_REGION_LENGTH__+0x40>
     436:	25 fd       	sbrc	r18, 5
     438:	03 c0       	rjmp	.+6      	; 0x440 <__EEPROM_REGION_LENGTH__+0x40>
     43a:	55 83       	std	Z+5, r21	; 0x05
     43c:	44 83       	std	Z+4, r20	; 0x04
     43e:	9b 7f       	andi	r25, 0xFB	; 251
     440:	93 ff       	sbrs	r25, 3
     442:	05 c0       	rjmp	.+10     	; 0x44e <__EEPROM_REGION_LENGTH__+0x4e>
     444:	24 fd       	sbrc	r18, 4
     446:	03 c0       	rjmp	.+6      	; 0x44e <__EEPROM_REGION_LENGTH__+0x4e>
     448:	57 83       	std	Z+7, r21	; 0x07
     44a:	46 83       	std	Z+6, r20	; 0x06
     44c:	97 7f       	andi	r25, 0xF7	; 247
     44e:	94 ff       	sbrs	r25, 4
     450:	05 c0       	rjmp	.+10     	; 0x45c <__EEPROM_REGION_LENGTH__+0x5c>
     452:	21 fd       	sbrc	r18, 1
     454:	03 c0       	rjmp	.+6      	; 0x45c <__EEPROM_REGION_LENGTH__+0x5c>
     456:	51 87       	std	Z+9, r21	; 0x09
     458:	40 87       	std	Z+8, r20	; 0x08
     45a:	9f 7e       	andi	r25, 0xEF	; 239
     45c:	99 23       	and	r25, r25
     45e:	39 f0       	breq	.+14     	; 0x46e <__EEPROM_REGION_LENGTH__+0x6e>
     460:	20 91 94 00 	lds	r18, 0x0094	; 0x800094 <__TEXT_REGION_LENGTH__+0x7f8094>
     464:	30 91 95 00 	lds	r19, 0x0095	; 0x800095 <__TEXT_REGION_LENGTH__+0x7f8095>
     468:	2a 17       	cp	r18, r26
     46a:	3b 07       	cpc	r19, r27
     46c:	70 f2       	brcs	.-100    	; 0x40a <__EEPROM_REGION_LENGTH__+0xa>
     46e:	62 30       	cpi	r22, 0x02	; 2
     470:	18 f4       	brcc	.+6      	; 0x478 <__EEPROM_REGION_LENGTH__+0x78>
     472:	84 b1       	in	r24, 0x04	; 4
     474:	8f 77       	andi	r24, 0x7F	; 127
     476:	84 b9       	out	0x04, r24	; 4
     478:	08 95       	ret

0000047a <line_sensors_set_timeout_us>:
     47a:	00 97       	sbiw	r24, 0x00	; 0
     47c:	11 f4       	brne	.+4      	; 0x482 <line_sensors_set_timeout_us+0x8>
     47e:	81 e0       	ldi	r24, 0x01	; 1
     480:	90 e0       	ldi	r25, 0x00	; 0
     482:	99 23       	and	r25, r25
     484:	14 f4       	brge	.+4      	; 0x48a <line_sensors_set_timeout_us+0x10>
     486:	8f ef       	ldi	r24, 0xFF	; 255
     488:	9f e7       	ldi	r25, 0x7F	; 127
     48a:	90 93 01 01 	sts	0x0101, r25	; 0x800101 <__DATA_REGION_ORIGIN__+0x1>
     48e:	80 93 00 01 	sts	0x0100, r24	; 0x800100 <__DATA_REGION_ORIGIN__>
     492:	88 0f       	add	r24, r24
     494:	99 1f       	adc	r25, r25
     496:	90 93 8d 01 	sts	0x018D, r25	; 0x80018d <timeout_ticks+0x1>
     49a:	80 93 8c 01 	sts	0x018C, r24	; 0x80018c <timeout_ticks>
     49e:	08 95       	ret

000004a0 <line_calibrate_reset>:

void line_calibrate_reset(void)
{
	// Min starts at maxValue (timeout), max at 0 (Pololu behavior)
	for (uint8_t i=0;i<NUM_SENSORS;i++) {
     4a0:	20 e0       	ldi	r18, 0x00	; 0
     4a2:	1d c0       	rjmp	.+58     	; 0x4de <line_calibrate_reset+0x3e>
		calMinOn[i]  = timeout_us;
     4a4:	82 2f       	mov	r24, r18
     4a6:	90 e0       	ldi	r25, 0x00	; 0
     4a8:	40 91 00 01 	lds	r20, 0x0100	; 0x800100 <__DATA_REGION_ORIGIN__>
     4ac:	50 91 01 01 	lds	r21, 0x0101	; 0x800101 <__DATA_REGION_ORIGIN__+0x1>
     4b0:	88 0f       	add	r24, r24
     4b2:	99 1f       	adc	r25, r25
     4b4:	fc 01       	movw	r30, r24
     4b6:	ee 57       	subi	r30, 0x7E	; 126
     4b8:	fe 4f       	sbci	r31, 0xFE	; 254
     4ba:	51 83       	std	Z+1, r21	; 0x01
     4bc:	40 83       	st	Z, r20
		calMaxOn[i]  = 0;
     4be:	fc 01       	movw	r30, r24
     4c0:	e8 58       	subi	r30, 0x88	; 136
     4c2:	fe 4f       	sbci	r31, 0xFE	; 254
     4c4:	11 82       	std	Z+1, r1	; 0x01
     4c6:	10 82       	st	Z, r1
		calMinOff[i] = timeout_us;
     4c8:	fc 01       	movw	r30, r24
     4ca:	e2 59       	subi	r30, 0x92	; 146
     4cc:	fe 4f       	sbci	r31, 0xFE	; 254
     4ce:	51 83       	std	Z+1, r21	; 0x01
     4d0:	40 83       	st	Z, r20
		calMaxOff[i] = 0;
     4d2:	fc 01       	movw	r30, r24
     4d4:	ec 59       	subi	r30, 0x9C	; 156
     4d6:	fe 4f       	sbci	r31, 0xFE	; 254
     4d8:	11 82       	std	Z+1, r1	; 0x01
     4da:	10 82       	st	Z, r1
uint16_t line_sensors_get_timeout_us(void) { return timeout_us; }

void line_calibrate_reset(void)
{
	// Min starts at maxValue (timeout), max at 0 (Pololu behavior)
	for (uint8_t i=0;i<NUM_SENSORS;i++) {
     4dc:	2f 5f       	subi	r18, 0xFF	; 255
     4de:	25 30       	cpi	r18, 0x05	; 5
     4e0:	08 f3       	brcs	.-62     	; 0x4a4 <line_calibrate_reset+0x4>
		calMinOn[i]  = timeout_us;
		calMaxOn[i]  = 0;
		calMinOff[i] = timeout_us;
		calMaxOff[i] = 0;
	}
	haveOn = haveOff = 0;
     4e2:	10 92 62 01 	sts	0x0162, r1	; 0x800162 <haveOff>
     4e6:	10 92 63 01 	sts	0x0163, r1	; 0x800163 <haveOn>
	lastPosition = 0;
     4ea:	10 92 61 01 	sts	0x0161, r1	; 0x800161 <__data_end+0x1>
     4ee:	10 92 60 01 	sts	0x0160, r1	; 0x800160 <__data_end>
     4f2:	08 95       	ret

000004f4 <line_sensors_init>:
}

void line_sensors_init(void)
{
	// Timer3 for timing
	TCCR3A = 0x00;
     4f4:	10 92 90 00 	sts	0x0090, r1	; 0x800090 <__TEXT_REGION_LENGTH__+0x7f8090>
	TCCR3B = T3_PRESCALE_8;
     4f8:	82 e0       	ldi	r24, 0x02	; 2
     4fa:	80 93 91 00 	sts	0x0091, r24	; 0x800091 <__TEXT_REGION_LENGTH__+0x7f8091>

static uint16_t lastPosition = 0;      // 0..4000 (sticky when line lost)

// ---- emitter control (Pololu: on = output HIGH, off = input) ----
static inline void emit_on_hw(void)  { DDRB |= _BV(EMIT); PORTB |= _BV(EMIT); }
static inline void emit_off_hw(void) { DDRB &= ~_BV(EMIT); /* tri-state */ }
     4fe:	84 b1       	in	r24, 0x04	; 4
     500:	8f 77       	andi	r24, 0x7F	; 127
     502:	84 b9       	out	0x04, r24	; 4
	// Timer3 for timing
	TCCR3A = 0x00;
	TCCR3B = T3_PRESCALE_8;

	emit_off_hw(); // start with emitters off
	line_sensors_set_timeout_us(4000);
     504:	80 ea       	ldi	r24, 0xA0	; 160
     506:	9f e0       	ldi	r25, 0x0F	; 15
     508:	0e 94 3d 02 	call	0x47a	; 0x47a <line_sensors_set_timeout_us>
	line_calibrate_reset();
     50c:	0e 94 50 02 	call	0x4a0	; 0x4a0 <line_calibrate_reset>
     510:	08 95       	ret

00000512 <line_read>:
	// Restore emitters off if we forced a state
	if (mode == LS_MODE_On || mode == LS_MODE_Off) emit_off_hw();
}

void line_read(uint16_t out[NUM_SENSORS], LineSensorsReadMode mode)
{
     512:	0f 93       	push	r16
     514:	1f 93       	push	r17
     516:	cf 93       	push	r28
     518:	df 93       	push	r29
     51a:	cd b7       	in	r28, 0x3d	; 61
     51c:	de b7       	in	r29, 0x3e	; 62
     51e:	2a 97       	sbiw	r28, 0x0a	; 10
     520:	0f b6       	in	r0, 0x3f	; 63
     522:	f8 94       	cli
     524:	de bf       	out	0x3e, r29	; 62
     526:	0f be       	out	0x3f, r0	; 63
     528:	cd bf       	out	0x3d, r28	; 61
     52a:	8c 01       	movw	r16, r24
	uint16_t ticks[NUM_SENSORS];
	read_raw_ticks(ticks, mode);
     52c:	ce 01       	movw	r24, r28
     52e:	01 96       	adiw	r24, 0x01	; 1
     530:	0e 94 c6 01 	call	0x38c	; 0x38c <read_raw_ticks>

	// Convert ticks → µs (0.5 µs / tick) and clamp
	for (uint8_t i=0;i<NUM_SENSORS;i++) {
     534:	20 e0       	ldi	r18, 0x00	; 0
     536:	26 c0       	rjmp	.+76     	; 0x584 <line_read+0x72>
		uint32_t us = (uint32_t)ticks[i] / 2u;
     538:	e2 2f       	mov	r30, r18
     53a:	f0 e0       	ldi	r31, 0x00	; 0
     53c:	ee 0f       	add	r30, r30
     53e:	ff 1f       	adc	r31, r31
     540:	81 e0       	ldi	r24, 0x01	; 1
     542:	90 e0       	ldi	r25, 0x00	; 0
     544:	8c 0f       	add	r24, r28
     546:	9d 1f       	adc	r25, r29
     548:	e8 0f       	add	r30, r24
     54a:	f9 1f       	adc	r31, r25
     54c:	80 81       	ld	r24, Z
     54e:	91 81       	ldd	r25, Z+1	; 0x01
     550:	96 95       	lsr	r25
     552:	87 95       	ror	r24
     554:	a0 e0       	ldi	r26, 0x00	; 0
     556:	b0 e0       	ldi	r27, 0x00	; 0
		if (us > timeout_us) us = timeout_us;
     558:	40 91 00 01 	lds	r20, 0x0100	; 0x800100 <__DATA_REGION_ORIGIN__>
     55c:	50 91 01 01 	lds	r21, 0x0101	; 0x800101 <__DATA_REGION_ORIGIN__+0x1>
     560:	60 e0       	ldi	r22, 0x00	; 0
     562:	70 e0       	ldi	r23, 0x00	; 0
     564:	48 17       	cp	r20, r24
     566:	59 07       	cpc	r21, r25
     568:	6a 07       	cpc	r22, r26
     56a:	7b 07       	cpc	r23, r27
     56c:	10 f0       	brcs	.+4      	; 0x572 <line_read+0x60>
	uint16_t ticks[NUM_SENSORS];
	read_raw_ticks(ticks, mode);

	// Convert ticks → µs (0.5 µs / tick) and clamp
	for (uint8_t i=0;i<NUM_SENSORS;i++) {
		uint32_t us = (uint32_t)ticks[i] / 2u;
     56e:	ac 01       	movw	r20, r24
     570:	bd 01       	movw	r22, r26
		if (us > timeout_us) us = timeout_us;
		out[i] = (uint16_t)us;
     572:	e2 2f       	mov	r30, r18
     574:	f0 e0       	ldi	r31, 0x00	; 0
     576:	ee 0f       	add	r30, r30
     578:	ff 1f       	adc	r31, r31
     57a:	e0 0f       	add	r30, r16
     57c:	f1 1f       	adc	r31, r17
     57e:	51 83       	std	Z+1, r21	; 0x01
     580:	40 83       	st	Z, r20
{
	uint16_t ticks[NUM_SENSORS];
	read_raw_ticks(ticks, mode);

	// Convert ticks → µs (0.5 µs / tick) and clamp
	for (uint8_t i=0;i<NUM_SENSORS;i++) {
     582:	2f 5f       	subi	r18, 0xFF	; 255
     584:	25 30       	cpi	r18, 0x05	; 5
     586:	c0 f2       	brcs	.-80     	; 0x538 <line_read+0x26>
		uint32_t us = (uint32_t)ticks[i] / 2u;
		if (us > timeout_us) us = timeout_us;
		out[i] = (uint16_t)us;
	}
}
     588:	2a 96       	adiw	r28, 0x0a	; 10
     58a:	0f b6       	in	r0, 0x3f	; 63
     58c:	f8 94       	cli
     58e:	de bf       	out	0x3e, r29	; 62
     590:	0f be       	out	0x3f, r0	; 63
     592:	cd bf       	out	0x3d, r28	; 61
     594:	df 91       	pop	r29
     596:	cf 91       	pop	r28
     598:	1f 91       	pop	r17
     59a:	0f 91       	pop	r16
     59c:	08 95       	ret

0000059e <line_calibrate>:

void line_calibrate(LineSensorsReadMode mode)
{
     59e:	0f 93       	push	r16
     5a0:	1f 93       	push	r17
     5a2:	cf 93       	push	r28
     5a4:	df 93       	push	r29
     5a6:	cd b7       	in	r28, 0x3d	; 61
     5a8:	de b7       	in	r29, 0x3e	; 62
     5aa:	6e 97       	sbiw	r28, 0x1e	; 30
     5ac:	0f b6       	in	r0, 0x3f	; 63
     5ae:	f8 94       	cli
     5b0:	de bf       	out	0x3e, r29	; 62
     5b2:	0f be       	out	0x3f, r0	; 63
     5b4:	cd bf       	out	0x3d, r28	; 61
	if (mode == LS_MODE_Manual) return;  // not supported
     5b6:	82 30       	cpi	r24, 0x02	; 2
     5b8:	09 f4       	brne	.+2      	; 0x5bc <line_calibrate+0x1e>
     5ba:	e5 c0       	rjmp	.+458    	; 0x786 <line_calibrate+0x1e8>

	uint16_t r[NUM_SENSORS];
	uint16_t max10[NUM_SENSORS] = {0};
     5bc:	fe 01       	movw	r30, r28
     5be:	3b 96       	adiw	r30, 0x0b	; 11
     5c0:	9a e0       	ldi	r25, 0x0A	; 10
     5c2:	df 01       	movw	r26, r30
     5c4:	1d 92       	st	X+, r1
     5c6:	9a 95       	dec	r25
     5c8:	e9 f7       	brne	.-6      	; 0x5c4 <line_calibrate+0x26>
	uint16_t min10[NUM_SENSORS];

	for (uint8_t i=0;i<NUM_SENSORS;i++) min10[i] = timeout_us;
     5ca:	90 e0       	ldi	r25, 0x00	; 0
     5cc:	11 c0       	rjmp	.+34     	; 0x5f0 <line_calibrate+0x52>
     5ce:	e9 2f       	mov	r30, r25
     5d0:	f0 e0       	ldi	r31, 0x00	; 0
     5d2:	ee 0f       	add	r30, r30
     5d4:	ff 1f       	adc	r31, r31
     5d6:	21 e0       	ldi	r18, 0x01	; 1
     5d8:	30 e0       	ldi	r19, 0x00	; 0
     5da:	2c 0f       	add	r18, r28
     5dc:	3d 1f       	adc	r19, r29
     5de:	e2 0f       	add	r30, r18
     5e0:	f3 1f       	adc	r31, r19
     5e2:	20 91 00 01 	lds	r18, 0x0100	; 0x800100 <__DATA_REGION_ORIGIN__>
     5e6:	30 91 01 01 	lds	r19, 0x0101	; 0x800101 <__DATA_REGION_ORIGIN__+0x1>
     5ea:	35 8b       	std	Z+21, r19	; 0x15
     5ec:	24 8b       	std	Z+20, r18	; 0x14
     5ee:	9f 5f       	subi	r25, 0xFF	; 255
     5f0:	95 30       	cpi	r25, 0x05	; 5
     5f2:	68 f3       	brcs	.-38     	; 0x5ce <line_calibrate+0x30>
     5f4:	08 2f       	mov	r16, r24
     5f6:	10 e0       	ldi	r17, 0x00	; 0
     5f8:	43 c0       	rjmp	.+134    	; 0x680 <line_calibrate+0xe2>

	// 10 samples per Pololu spec
	for (uint8_t j=0;j<10;j++) {
		line_read(r, mode);
     5fa:	60 2f       	mov	r22, r16
     5fc:	ce 01       	movw	r24, r28
     5fe:	01 96       	adiw	r24, 0x01	; 1
     600:	0e 94 89 02 	call	0x512	; 0x512 <line_read>
		for (uint8_t i=0;i<NUM_SENSORS;i++) {
     604:	80 e0       	ldi	r24, 0x00	; 0
     606:	33 c0       	rjmp	.+102    	; 0x66e <line_calibrate+0xd0>
			if (r[i] > max10[i]) max10[i] = r[i];
     608:	28 2f       	mov	r18, r24
     60a:	30 e0       	ldi	r19, 0x00	; 0
     60c:	f9 01       	movw	r30, r18
     60e:	ee 0f       	add	r30, r30
     610:	ff 1f       	adc	r31, r31
     612:	41 e0       	ldi	r20, 0x01	; 1
     614:	50 e0       	ldi	r21, 0x00	; 0
     616:	4c 0f       	add	r20, r28
     618:	5d 1f       	adc	r21, r29
     61a:	e4 0f       	add	r30, r20
     61c:	f5 1f       	adc	r31, r21
     61e:	40 81       	ld	r20, Z
     620:	51 81       	ldd	r21, Z+1	; 0x01
     622:	62 85       	ldd	r22, Z+10	; 0x0a
     624:	73 85       	ldd	r23, Z+11	; 0x0b
     626:	64 17       	cp	r22, r20
     628:	75 07       	cpc	r23, r21
     62a:	58 f4       	brcc	.+22     	; 0x642 <line_calibrate+0xa4>
     62c:	f9 01       	movw	r30, r18
     62e:	ee 0f       	add	r30, r30
     630:	ff 1f       	adc	r31, r31
     632:	61 e0       	ldi	r22, 0x01	; 1
     634:	70 e0       	ldi	r23, 0x00	; 0
     636:	6c 0f       	add	r22, r28
     638:	7d 1f       	adc	r23, r29
     63a:	e6 0f       	add	r30, r22
     63c:	f7 1f       	adc	r31, r23
     63e:	53 87       	std	Z+11, r21	; 0x0b
     640:	42 87       	std	Z+10, r20	; 0x0a
			if (r[i] < min10[i]) min10[i] = r[i];
     642:	f9 01       	movw	r30, r18
     644:	ee 0f       	add	r30, r30
     646:	ff 1f       	adc	r31, r31
     648:	a1 e0       	ldi	r26, 0x01	; 1
     64a:	b0 e0       	ldi	r27, 0x00	; 0
     64c:	ac 0f       	add	r26, r28
     64e:	bd 1f       	adc	r27, r29
     650:	ea 0f       	add	r30, r26
     652:	fb 1f       	adc	r31, r27
     654:	64 89       	ldd	r22, Z+20	; 0x14
     656:	75 89       	ldd	r23, Z+21	; 0x15
     658:	46 17       	cp	r20, r22
     65a:	57 07       	cpc	r21, r23
     65c:	38 f4       	brcc	.+14     	; 0x66c <line_calibrate+0xce>
     65e:	22 0f       	add	r18, r18
     660:	33 1f       	adc	r19, r19
     662:	fd 01       	movw	r30, r26
     664:	e2 0f       	add	r30, r18
     666:	f3 1f       	adc	r31, r19
     668:	55 8b       	std	Z+21, r21	; 0x15
     66a:	44 8b       	std	Z+20, r20	; 0x14
	for (uint8_t i=0;i<NUM_SENSORS;i++) min10[i] = timeout_us;

	// 10 samples per Pololu spec
	for (uint8_t j=0;j<10;j++) {
		line_read(r, mode);
		for (uint8_t i=0;i<NUM_SENSORS;i++) {
     66c:	8f 5f       	subi	r24, 0xFF	; 255
     66e:	85 30       	cpi	r24, 0x05	; 5
     670:	58 f2       	brcs	.-106    	; 0x608 <line_calibrate+0x6a>
	#else
		//round up by default
		__ticks_dc = (uint32_t)(ceil(fabs(__tmp)));
	#endif

	__builtin_avr_delay_cycles(__ticks_dc);
     672:	8f e9       	ldi	r24, 0x9F	; 159
     674:	9f e0       	ldi	r25, 0x0F	; 15
     676:	01 97       	sbiw	r24, 0x01	; 1
     678:	f1 f7       	brne	.-4      	; 0x676 <line_calibrate+0xd8>
     67a:	00 c0       	rjmp	.+0      	; 0x67c <line_calibrate+0xde>
     67c:	00 00       	nop
	uint16_t min10[NUM_SENSORS];

	for (uint8_t i=0;i<NUM_SENSORS;i++) min10[i] = timeout_us;

	// 10 samples per Pololu spec
	for (uint8_t j=0;j<10;j++) {
     67e:	1f 5f       	subi	r17, 0xFF	; 255
     680:	1a 30       	cpi	r17, 0x0A	; 10
     682:	08 f4       	brcc	.+2      	; 0x686 <line_calibrate+0xe8>
     684:	ba cf       	rjmp	.-140    	; 0x5fa <line_calibrate+0x5c>
			if (r[i] < min10[i]) min10[i] = r[i];
		}
		_delay_ms(1);
	}

	if (mode == LS_MODE_On) {
     686:	01 30       	cpi	r16, 0x01	; 1
     688:	09 f0       	breq	.+2      	; 0x68c <line_calibrate+0xee>
     68a:	3f c0       	rjmp	.+126    	; 0x70a <line_calibrate+0x16c>
		haveOn = 1;
     68c:	81 e0       	ldi	r24, 0x01	; 1
     68e:	80 93 63 01 	sts	0x0163, r24	; 0x800163 <haveOn>
		for (uint8_t i=0;i<NUM_SENSORS;i++) {
     692:	40 e0       	ldi	r20, 0x00	; 0
     694:	37 c0       	rjmp	.+110    	; 0x704 <line_calibrate+0x166>
			if (min10[i] > calMaxOn[i]) calMaxOn[i] = min10[i];
     696:	24 2f       	mov	r18, r20
     698:	30 e0       	ldi	r19, 0x00	; 0
     69a:	c9 01       	movw	r24, r18
     69c:	88 0f       	add	r24, r24
     69e:	99 1f       	adc	r25, r25
     6a0:	e1 e0       	ldi	r30, 0x01	; 1
     6a2:	f0 e0       	ldi	r31, 0x00	; 0
     6a4:	ec 0f       	add	r30, r28
     6a6:	fd 1f       	adc	r31, r29
     6a8:	e8 0f       	add	r30, r24
     6aa:	f9 1f       	adc	r31, r25
     6ac:	64 89       	ldd	r22, Z+20	; 0x14
     6ae:	75 89       	ldd	r23, Z+21	; 0x15
     6b0:	fc 01       	movw	r30, r24
     6b2:	e8 58       	subi	r30, 0x88	; 136
     6b4:	fe 4f       	sbci	r31, 0xFE	; 254
     6b6:	80 81       	ld	r24, Z
     6b8:	91 81       	ldd	r25, Z+1	; 0x01
     6ba:	86 17       	cp	r24, r22
     6bc:	97 07       	cpc	r25, r23
     6be:	38 f4       	brcc	.+14     	; 0x6ce <line_calibrate+0x130>
     6c0:	f9 01       	movw	r30, r18
     6c2:	ee 0f       	add	r30, r30
     6c4:	ff 1f       	adc	r31, r31
     6c6:	e8 58       	subi	r30, 0x88	; 136
     6c8:	fe 4f       	sbci	r31, 0xFE	; 254
     6ca:	71 83       	std	Z+1, r23	; 0x01
     6cc:	60 83       	st	Z, r22
			if (max10[i] < calMinOn[i]) calMinOn[i] = max10[i];
     6ce:	c9 01       	movw	r24, r18
     6d0:	88 0f       	add	r24, r24
     6d2:	99 1f       	adc	r25, r25
     6d4:	e1 e0       	ldi	r30, 0x01	; 1
     6d6:	f0 e0       	ldi	r31, 0x00	; 0
     6d8:	ec 0f       	add	r30, r28
     6da:	fd 1f       	adc	r31, r29
     6dc:	e8 0f       	add	r30, r24
     6de:	f9 1f       	adc	r31, r25
     6e0:	62 85       	ldd	r22, Z+10	; 0x0a
     6e2:	73 85       	ldd	r23, Z+11	; 0x0b
     6e4:	fc 01       	movw	r30, r24
     6e6:	ee 57       	subi	r30, 0x7E	; 126
     6e8:	fe 4f       	sbci	r31, 0xFE	; 254
     6ea:	80 81       	ld	r24, Z
     6ec:	91 81       	ldd	r25, Z+1	; 0x01
     6ee:	68 17       	cp	r22, r24
     6f0:	79 07       	cpc	r23, r25
     6f2:	38 f4       	brcc	.+14     	; 0x702 <line_calibrate+0x164>
     6f4:	22 0f       	add	r18, r18
     6f6:	33 1f       	adc	r19, r19
     6f8:	f9 01       	movw	r30, r18
     6fa:	ee 57       	subi	r30, 0x7E	; 126
     6fc:	fe 4f       	sbci	r31, 0xFE	; 254
     6fe:	71 83       	std	Z+1, r23	; 0x01
     700:	60 83       	st	Z, r22
		_delay_ms(1);
	}

	if (mode == LS_MODE_On) {
		haveOn = 1;
		for (uint8_t i=0;i<NUM_SENSORS;i++) {
     702:	4f 5f       	subi	r20, 0xFF	; 255
     704:	45 30       	cpi	r20, 0x05	; 5
     706:	38 f2       	brcs	.-114    	; 0x696 <line_calibrate+0xf8>
     708:	3e c0       	rjmp	.+124    	; 0x786 <line_calibrate+0x1e8>
			if (min10[i] > calMaxOn[i]) calMaxOn[i] = min10[i];
			if (max10[i] < calMinOn[i]) calMinOn[i] = max10[i];
		}
		} else { // Off
		haveOff = 1;
     70a:	81 e0       	ldi	r24, 0x01	; 1
     70c:	80 93 62 01 	sts	0x0162, r24	; 0x800162 <haveOff>
		for (uint8_t i=0;i<NUM_SENSORS;i++) {
     710:	40 e0       	ldi	r20, 0x00	; 0
     712:	37 c0       	rjmp	.+110    	; 0x782 <line_calibrate+0x1e4>
			if (min10[i] > calMaxOff[i]) calMaxOff[i] = min10[i];
     714:	24 2f       	mov	r18, r20
     716:	30 e0       	ldi	r19, 0x00	; 0
     718:	c9 01       	movw	r24, r18
     71a:	88 0f       	add	r24, r24
     71c:	99 1f       	adc	r25, r25
     71e:	e1 e0       	ldi	r30, 0x01	; 1
     720:	f0 e0       	ldi	r31, 0x00	; 0
     722:	ec 0f       	add	r30, r28
     724:	fd 1f       	adc	r31, r29
     726:	e8 0f       	add	r30, r24
     728:	f9 1f       	adc	r31, r25
     72a:	64 89       	ldd	r22, Z+20	; 0x14
     72c:	75 89       	ldd	r23, Z+21	; 0x15
     72e:	fc 01       	movw	r30, r24
     730:	ec 59       	subi	r30, 0x9C	; 156
     732:	fe 4f       	sbci	r31, 0xFE	; 254
     734:	80 81       	ld	r24, Z
     736:	91 81       	ldd	r25, Z+1	; 0x01
     738:	86 17       	cp	r24, r22
     73a:	97 07       	cpc	r25, r23
     73c:	38 f4       	brcc	.+14     	; 0x74c <line_calibrate+0x1ae>
     73e:	f9 01       	movw	r30, r18
     740:	ee 0f       	add	r30, r30
     742:	ff 1f       	adc	r31, r31
     744:	ec 59       	subi	r30, 0x9C	; 156
     746:	fe 4f       	sbci	r31, 0xFE	; 254
     748:	71 83       	std	Z+1, r23	; 0x01
     74a:	60 83       	st	Z, r22
			if (max10[i] < calMinOff[i]) calMinOff[i] = max10[i];
     74c:	c9 01       	movw	r24, r18
     74e:	88 0f       	add	r24, r24
     750:	99 1f       	adc	r25, r25
     752:	e1 e0       	ldi	r30, 0x01	; 1
     754:	f0 e0       	ldi	r31, 0x00	; 0
     756:	ec 0f       	add	r30, r28
     758:	fd 1f       	adc	r31, r29
     75a:	e8 0f       	add	r30, r24
     75c:	f9 1f       	adc	r31, r25
     75e:	62 85       	ldd	r22, Z+10	; 0x0a
     760:	73 85       	ldd	r23, Z+11	; 0x0b
     762:	fc 01       	movw	r30, r24
     764:	e2 59       	subi	r30, 0x92	; 146
     766:	fe 4f       	sbci	r31, 0xFE	; 254
     768:	80 81       	ld	r24, Z
     76a:	91 81       	ldd	r25, Z+1	; 0x01
     76c:	68 17       	cp	r22, r24
     76e:	79 07       	cpc	r23, r25
     770:	38 f4       	brcc	.+14     	; 0x780 <line_calibrate+0x1e2>
     772:	22 0f       	add	r18, r18
     774:	33 1f       	adc	r19, r19
     776:	f9 01       	movw	r30, r18
     778:	e2 59       	subi	r30, 0x92	; 146
     77a:	fe 4f       	sbci	r31, 0xFE	; 254
     77c:	71 83       	std	Z+1, r23	; 0x01
     77e:	60 83       	st	Z, r22
			if (min10[i] > calMaxOn[i]) calMaxOn[i] = min10[i];
			if (max10[i] < calMinOn[i]) calMinOn[i] = max10[i];
		}
		} else { // Off
		haveOff = 1;
		for (uint8_t i=0;i<NUM_SENSORS;i++) {
     780:	4f 5f       	subi	r20, 0xFF	; 255
     782:	45 30       	cpi	r20, 0x05	; 5
     784:	38 f2       	brcs	.-114    	; 0x714 <line_calibrate+0x176>
			if (min10[i] > calMaxOff[i]) calMaxOff[i] = min10[i];
			if (max10[i] < calMinOff[i]) calMinOff[i] = max10[i];
		}
	}
}
     786:	6e 96       	adiw	r28, 0x1e	; 30
     788:	0f b6       	in	r0, 0x3f	; 63
     78a:	f8 94       	cli
     78c:	de bf       	out	0x3e, r29	; 62
     78e:	0f be       	out	0x3f, r0	; 63
     790:	cd bf       	out	0x3d, r28	; 61
     792:	df 91       	pop	r29
     794:	cf 91       	pop	r28
     796:	1f 91       	pop	r17
     798:	0f 91       	pop	r16
     79a:	08 95       	ret

0000079c <line_read_calibrated>:
		out[i] = (uint16_t)(((uint32_t)(v - lo) * 1000u) / (uint32_t)(hi - lo));
	}
}

void line_read_calibrated(uint16_t out[NUM_SENSORS], LineSensorsReadMode mode)
{
     79c:	ef 92       	push	r14
     79e:	ff 92       	push	r15
     7a0:	1f 93       	push	r17
     7a2:	cf 93       	push	r28
     7a4:	df 93       	push	r29
     7a6:	cd b7       	in	r28, 0x3d	; 61
     7a8:	de b7       	in	r29, 0x3e	; 62
     7aa:	2a 97       	sbiw	r28, 0x0a	; 10
     7ac:	0f b6       	in	r0, 0x3f	; 63
     7ae:	f8 94       	cli
     7b0:	de bf       	out	0x3e, r29	; 62
     7b2:	0f be       	out	0x3f, r0	; 63
     7b4:	cd bf       	out	0x3d, r28	; 61
     7b6:	9c 01       	movw	r18, r24
	if (mode == LS_MODE_Manual) { for (uint8_t i=0;i<NUM_SENSORS;i++) out[i]=0; return; }
     7b8:	62 30       	cpi	r22, 0x02	; 2
     7ba:	79 f4       	brne	.+30     	; 0x7da <line_read_calibrated+0x3e>
     7bc:	0a c0       	rjmp	.+20     	; 0x7d2 <line_read_calibrated+0x36>
     7be:	e9 2f       	mov	r30, r25
     7c0:	f0 e0       	ldi	r31, 0x00	; 0
     7c2:	ee 0f       	add	r30, r30
     7c4:	ff 1f       	adc	r31, r31
     7c6:	e2 0f       	add	r30, r18
     7c8:	f3 1f       	adc	r31, r19
     7ca:	11 82       	std	Z+1, r1	; 0x01
     7cc:	10 82       	st	Z, r1
     7ce:	9f 5f       	subi	r25, 0xFF	; 255
     7d0:	01 c0       	rjmp	.+2      	; 0x7d4 <line_read_calibrated+0x38>
     7d2:	90 e0       	ldi	r25, 0x00	; 0
     7d4:	95 30       	cpi	r25, 0x05	; 5
     7d6:	98 f3       	brcs	.-26     	; 0x7be <line_read_calibrated+0x22>
     7d8:	35 c0       	rjmp	.+106    	; 0x844 <line_read_calibrated+0xa8>
     7da:	16 2f       	mov	r17, r22
     7dc:	7c 01       	movw	r14, r24

	uint16_t raw[NUM_SENSORS];
	line_read(raw, mode);
     7de:	ce 01       	movw	r24, r28
     7e0:	01 96       	adiw	r24, 0x01	; 1
     7e2:	0e 94 89 02 	call	0x512	; 0x512 <line_read>

	if (mode == LS_MODE_On && haveOn)        normalize_from(raw, out, calMinOn,  calMaxOn);
     7e6:	11 30       	cpi	r17, 0x01	; 1
     7e8:	71 f4       	brne	.+28     	; 0x806 <line_read_calibrated+0x6a>
     7ea:	80 91 63 01 	lds	r24, 0x0163	; 0x800163 <haveOn>
     7ee:	88 23       	and	r24, r24
     7f0:	51 f0       	breq	.+20     	; 0x806 <line_read_calibrated+0x6a>
     7f2:	28 e7       	ldi	r18, 0x78	; 120
     7f4:	31 e0       	ldi	r19, 0x01	; 1
     7f6:	42 e8       	ldi	r20, 0x82	; 130
     7f8:	51 e0       	ldi	r21, 0x01	; 1
     7fa:	b7 01       	movw	r22, r14
     7fc:	ce 01       	movw	r24, r28
     7fe:	01 96       	adiw	r24, 0x01	; 1
     800:	0e 94 65 01 	call	0x2ca	; 0x2ca <normalize_from>
     804:	1f c0       	rjmp	.+62     	; 0x844 <line_read_calibrated+0xa8>
	else if (mode == LS_MODE_Off && haveOff) normalize_from(raw, out, calMinOff, calMaxOff);
     806:	11 11       	cpse	r17, r1
     808:	18 c0       	rjmp	.+48     	; 0x83a <line_read_calibrated+0x9e>
     80a:	80 91 62 01 	lds	r24, 0x0162	; 0x800162 <haveOff>
     80e:	88 23       	and	r24, r24
     810:	b1 f0       	breq	.+44     	; 0x83e <line_read_calibrated+0xa2>
     812:	24 e6       	ldi	r18, 0x64	; 100
     814:	31 e0       	ldi	r19, 0x01	; 1
     816:	4e e6       	ldi	r20, 0x6E	; 110
     818:	51 e0       	ldi	r21, 0x01	; 1
     81a:	b7 01       	movw	r22, r14
     81c:	ce 01       	movw	r24, r28
     81e:	01 96       	adiw	r24, 0x01	; 1
     820:	0e 94 65 01 	call	0x2ca	; 0x2ca <normalize_from>
     824:	0f c0       	rjmp	.+30     	; 0x844 <line_read_calibrated+0xa8>
	else                                     for (uint8_t i=0;i<NUM_SENSORS;i++) out[i]=0;
     826:	e9 2f       	mov	r30, r25
     828:	f0 e0       	ldi	r31, 0x00	; 0
     82a:	ee 0f       	add	r30, r30
     82c:	ff 1f       	adc	r31, r31
     82e:	ee 0d       	add	r30, r14
     830:	ff 1d       	adc	r31, r15
     832:	11 82       	std	Z+1, r1	; 0x01
     834:	10 82       	st	Z, r1
     836:	9f 5f       	subi	r25, 0xFF	; 255
     838:	03 c0       	rjmp	.+6      	; 0x840 <line_read_calibrated+0xa4>
     83a:	90 e0       	ldi	r25, 0x00	; 0
     83c:	01 c0       	rjmp	.+2      	; 0x840 <line_read_calibrated+0xa4>
     83e:	90 e0       	ldi	r25, 0x00	; 0
     840:	95 30       	cpi	r25, 0x05	; 5
     842:	88 f3       	brcs	.-30     	; 0x826 <line_read_calibrated+0x8a>
}
     844:	2a 96       	adiw	r28, 0x0a	; 10
     846:	0f b6       	in	r0, 0x3f	; 63
     848:	f8 94       	cli
     84a:	de bf       	out	0x3e, r29	; 62
     84c:	0f be       	out	0x3f, r0	; 63
     84e:	cd bf       	out	0x3d, r28	; 61
     850:	df 91       	pop	r29
     852:	cf 91       	pop	r28
     854:	1f 91       	pop	r17
     856:	ff 90       	pop	r15
     858:	ef 90       	pop	r14
     85a:	08 95       	ret

0000085c <readLinePrivate>:

static uint16_t readLinePrivate(uint16_t out[NUM_SENSORS],
LineSensorsReadMode mode,
bool invert)
{
     85c:	4f 92       	push	r4
     85e:	5f 92       	push	r5
     860:	6f 92       	push	r6
     862:	7f 92       	push	r7
     864:	8f 92       	push	r8
     866:	9f 92       	push	r9
     868:	af 92       	push	r10
     86a:	bf 92       	push	r11
     86c:	cf 92       	push	r12
     86e:	df 92       	push	r13
     870:	ef 92       	push	r14
     872:	ff 92       	push	r15
     874:	cf 93       	push	r28
     876:	df 93       	push	r29
     878:	ec 01       	movw	r28, r24
     87a:	f4 2e       	mov	r15, r20
	line_read_calibrated(out, mode);
     87c:	0e 94 ce 03 	call	0x79c	; 0x79c <line_read_calibrated>

	if (invert) {
     880:	f1 10       	cpse	r15, r1
     882:	11 c0       	rjmp	.+34     	; 0x8a6 <readLinePrivate+0x4a>
     884:	13 c0       	rjmp	.+38     	; 0x8ac <readLinePrivate+0x50>
		for (uint8_t i=1;i<4;i++) out[i] = 1000 - out[i];
     886:	e8 2f       	mov	r30, r24
     888:	f0 e0       	ldi	r31, 0x00	; 0
     88a:	ee 0f       	add	r30, r30
     88c:	ff 1f       	adc	r31, r31
     88e:	ec 0f       	add	r30, r28
     890:	fd 1f       	adc	r31, r29
     892:	40 81       	ld	r20, Z
     894:	51 81       	ldd	r21, Z+1	; 0x01
     896:	28 ee       	ldi	r18, 0xE8	; 232
     898:	33 e0       	ldi	r19, 0x03	; 3
     89a:	24 1b       	sub	r18, r20
     89c:	35 0b       	sbc	r19, r21
     89e:	31 83       	std	Z+1, r19	; 0x01
     8a0:	20 83       	st	Z, r18
     8a2:	8f 5f       	subi	r24, 0xFF	; 255
     8a4:	01 c0       	rjmp	.+2      	; 0x8a8 <readLinePrivate+0x4c>
     8a6:	81 e0       	ldi	r24, 0x01	; 1
     8a8:	84 30       	cpi	r24, 0x04	; 4
     8aa:	68 f3       	brcs	.-38     	; 0x886 <readLinePrivate+0x2a>

	uint8_t  onLine = 0;
	uint32_t avg = 0;  // weighted sum
	uint32_t sum = 0;  // denominator

	for (uint8_t i=1;i<4;i++) {
     8ac:	e1 e0       	ldi	r30, 0x01	; 1
		for (uint8_t i=1;i<4;i++) out[i] = 1000 - out[i];
	}

	uint8_t  onLine = 0;
	uint32_t avg = 0;  // weighted sum
	uint32_t sum = 0;  // denominator
     8ae:	81 2c       	mov	r8, r1
     8b0:	91 2c       	mov	r9, r1
     8b2:	54 01       	movw	r10, r8
	if (invert) {
		for (uint8_t i=1;i<4;i++) out[i] = 1000 - out[i];
	}

	uint8_t  onLine = 0;
	uint32_t avg = 0;  // weighted sum
     8b4:	41 2c       	mov	r4, r1
     8b6:	51 2c       	mov	r5, r1
     8b8:	32 01       	movw	r6, r4

	if (invert) {
		for (uint8_t i=1;i<4;i++) out[i] = 1000 - out[i];
	}

	uint8_t  onLine = 0;
     8ba:	f0 e0       	ldi	r31, 0x00	; 0
	uint32_t avg = 0;  // weighted sum
	uint32_t sum = 0;  // denominator

	for (uint8_t i=1;i<4;i++) {
     8bc:	2a c0       	rjmp	.+84     	; 0x912 <readLinePrivate+0xb6>
		uint16_t v = out[i];
     8be:	8e 2f       	mov	r24, r30
     8c0:	90 e0       	ldi	r25, 0x00	; 0
     8c2:	dc 01       	movw	r26, r24
     8c4:	aa 0f       	add	r26, r26
     8c6:	bb 1f       	adc	r27, r27
     8c8:	ac 0f       	add	r26, r28
     8ca:	bd 1f       	adc	r27, r29
     8cc:	cd 90       	ld	r12, X+
     8ce:	dc 90       	ld	r13, X
		if (v > 200) onLine = 1;                 // Pololu on-line threshold
     8d0:	29 ec       	ldi	r18, 0xC9	; 201
     8d2:	c2 16       	cp	r12, r18
     8d4:	d1 04       	cpc	r13, r1
     8d6:	08 f0       	brcs	.+2      	; 0x8da <readLinePrivate+0x7e>
     8d8:	f1 e0       	ldi	r31, 0x01	; 1
		if (v > 50) {                            // ignore small noise
     8da:	23 e3       	ldi	r18, 0x33	; 51
     8dc:	c2 16       	cp	r12, r18
     8de:	d1 04       	cpc	r13, r1
     8e0:	b8 f0       	brcs	.+46     	; 0x910 <readLinePrivate+0xb4>
			avg += (uint32_t)v * (uint32_t)(i * 1000u);
     8e2:	e1 2c       	mov	r14, r1
     8e4:	f1 2c       	mov	r15, r1
     8e6:	28 ee       	ldi	r18, 0xE8	; 232
     8e8:	33 e0       	ldi	r19, 0x03	; 3
     8ea:	82 9f       	mul	r24, r18
     8ec:	d0 01       	movw	r26, r0
     8ee:	83 9f       	mul	r24, r19
     8f0:	b0 0d       	add	r27, r0
     8f2:	92 9f       	mul	r25, r18
     8f4:	b0 0d       	add	r27, r0
     8f6:	11 24       	eor	r1, r1
     8f8:	a7 01       	movw	r20, r14
     8fa:	96 01       	movw	r18, r12
     8fc:	0e 94 6e 0b 	call	0x16dc	; 0x16dc <__muluhisi3>
     900:	46 0e       	add	r4, r22
     902:	57 1e       	adc	r5, r23
     904:	68 1e       	adc	r6, r24
     906:	79 1e       	adc	r7, r25
			sum += v;
     908:	8c 0c       	add	r8, r12
     90a:	9d 1c       	adc	r9, r13
     90c:	ae 1c       	adc	r10, r14
     90e:	bf 1c       	adc	r11, r15

	uint8_t  onLine = 0;
	uint32_t avg = 0;  // weighted sum
	uint32_t sum = 0;  // denominator

	for (uint8_t i=1;i<4;i++) {
     910:	ef 5f       	subi	r30, 0xFF	; 255
     912:	e4 30       	cpi	r30, 0x04	; 4
     914:	a0 f2       	brcs	.-88     	; 0x8be <readLinePrivate+0x62>
			avg += (uint32_t)v * (uint32_t)(i * 1000u);
			sum += v;
		}
	}

	if (!onLine) {
     916:	f1 11       	cpse	r31, r1
     918:	0a c0       	rjmp	.+20     	; 0x92e <readLinePrivate+0xd2>
		// Stick to last side like Pololu
		return (lastPosition < 2000) ? 0 : 4000;
     91a:	80 91 60 01 	lds	r24, 0x0160	; 0x800160 <__data_end>
     91e:	90 91 61 01 	lds	r25, 0x0161	; 0x800161 <__data_end+0x1>
     922:	80 3d       	cpi	r24, 0xD0	; 208
     924:	97 40       	sbci	r25, 0x07	; 7
     926:	78 f4       	brcc	.+30     	; 0x946 <readLinePrivate+0xea>
     928:	80 e0       	ldi	r24, 0x00	; 0
     92a:	90 e0       	ldi	r25, 0x00	; 0
     92c:	0e c0       	rjmp	.+28     	; 0x94a <readLinePrivate+0xee>
	}

	lastPosition = (uint16_t)(avg / sum);
     92e:	c3 01       	movw	r24, r6
     930:	b2 01       	movw	r22, r4
     932:	a5 01       	movw	r20, r10
     934:	94 01       	movw	r18, r8
     936:	0e 94 1e 0b 	call	0x163c	; 0x163c <__udivmodsi4>
     93a:	c9 01       	movw	r24, r18
     93c:	30 93 61 01 	sts	0x0161, r19	; 0x800161 <__data_end+0x1>
     940:	20 93 60 01 	sts	0x0160, r18	; 0x800160 <__data_end>
	return lastPosition;
     944:	02 c0       	rjmp	.+4      	; 0x94a <readLinePrivate+0xee>
		}
	}

	if (!onLine) {
		// Stick to last side like Pololu
		return (lastPosition < 2000) ? 0 : 4000;
     946:	80 ea       	ldi	r24, 0xA0	; 160
     948:	9f e0       	ldi	r25, 0x0F	; 15
	}

	lastPosition = (uint16_t)(avg / sum);
	return lastPosition;
}
     94a:	df 91       	pop	r29
     94c:	cf 91       	pop	r28
     94e:	ff 90       	pop	r15
     950:	ef 90       	pop	r14
     952:	df 90       	pop	r13
     954:	cf 90       	pop	r12
     956:	bf 90       	pop	r11
     958:	af 90       	pop	r10
     95a:	9f 90       	pop	r9
     95c:	8f 90       	pop	r8
     95e:	7f 90       	pop	r7
     960:	6f 90       	pop	r6
     962:	5f 90       	pop	r5
     964:	4f 90       	pop	r4
     966:	08 95       	ret

00000968 <line_readLineBlack>:

uint16_t line_readLineBlack(uint16_t out[NUM_SENSORS], LineSensorsReadMode mode)
{
	return readLinePrivate(out, mode, false);
     968:	40 e0       	ldi	r20, 0x00	; 0
     96a:	0e 94 2e 04 	call	0x85c	; 0x85c <readLinePrivate>
}
     96e:	08 95       	ret

00000970 <load_default_config>:


// Initializes robot motor configuration parameters
static void load_default_config(void)
{
    cfg.maxSpeed       = 80;
     970:	e5 eb       	ldi	r30, 0xB5	; 181
     972:	f1 e0       	ldi	r31, 0x01	; 1
     974:	80 e5       	ldi	r24, 0x50	; 80
     976:	90 e0       	ldi	r25, 0x00	; 0
     978:	91 83       	std	Z+1, r25	; 0x01
     97a:	80 83       	st	Z, r24
    cfg.minSpeed       = 0;
     97c:	13 82       	std	Z+3, r1	; 0x03
     97e:	12 82       	std	Z+2, r1	; 0x02
    cfg.cruiseSpeed    = 80;
     980:	95 83       	std	Z+5, r25	; 0x05
     982:	84 83       	std	Z+4, r24	; 0x04
    cfg.calibSpeed     = 60;
     984:	8c e3       	ldi	r24, 0x3C	; 60
     986:	90 e0       	ldi	r25, 0x00	; 0
     988:	97 83       	std	Z+7, r25	; 0x07
     98a:	86 83       	std	Z+6, r24	; 0x06

	// PID tuning control
    cfg.Kp             = 16; 
     98c:	80 e1       	ldi	r24, 0x10	; 16
     98e:	90 e0       	ldi	r25, 0x00	; 0
     990:	91 87       	std	Z+9, r25	; 0x09
     992:	80 87       	std	Z+8, r24	; 0x08
    cfg.Kd             = 64;  
     994:	80 e4       	ldi	r24, 0x40	; 64
     996:	90 e0       	ldi	r25, 0x00	; 0
     998:	93 87       	std	Z+11, r25	; 0x0b
     99a:	82 87       	std	Z+10, r24	; 0x0a
    cfg.Ki             = 0;    
     99c:	15 86       	std	Z+13, r1	; 0x0d
     99e:	14 86       	std	Z+12, r1	; 0x0c

    cfg.creepSpeed     = 61;
     9a0:	8d e3       	ldi	r24, 0x3D	; 61
     9a2:	90 e0       	ldi	r25, 0x00	; 0
     9a4:	97 87       	std	Z+15, r25	; 0x0f
     9a6:	86 87       	std	Z+14, r24	; 0x0e
    cfg.creepTime_ms   = 38;
     9a8:	86 e2       	ldi	r24, 0x26	; 38
     9aa:	90 e0       	ldi	r25, 0x00	; 0
     9ac:	91 8b       	std	Z+17, r25	; 0x11
     9ae:	80 8b       	std	Z+16, r24	; 0x10

    cfg.centerSpeed    = 40;
     9b0:	28 e2       	ldi	r18, 0x28	; 40
     9b2:	30 e0       	ldi	r19, 0x00	; 0
     9b4:	33 8b       	std	Z+19, r19	; 0x13
     9b6:	22 8b       	std	Z+18, r18	; 0x12
    cfg.centerTime_ms  = 90;
     9b8:	2a e5       	ldi	r18, 0x5A	; 90
     9ba:	30 e0       	ldi	r19, 0x00	; 0
     9bc:	35 8b       	std	Z+21, r19	; 0x15
     9be:	24 8b       	std	Z+20, r18	; 0x14

    cfg.turnSpeed      = 100;
     9c0:	24 e6       	ldi	r18, 0x64	; 100
     9c2:	30 e0       	ldi	r19, 0x00	; 0
     9c4:	37 8b       	std	Z+23, r19	; 0x17
     9c6:	26 8b       	std	Z+22, r18	; 0x16
    cfg.quarterTurn_ms = 200;
     9c8:	28 ec       	ldi	r18, 0xC8	; 200
     9ca:	30 e0       	ldi	r19, 0x00	; 0
     9cc:	31 8f       	std	Z+25, r19	; 0x19
     9ce:	20 8f       	std	Z+24, r18	; 0x18

    cfg.brake1Speed    = 72;
     9d0:	28 e4       	ldi	r18, 0x48	; 72
     9d2:	30 e0       	ldi	r19, 0x00	; 0
     9d4:	33 8f       	std	Z+27, r19	; 0x1b
     9d6:	22 8f       	std	Z+26, r18	; 0x1a
    cfg.brake1Time_ms  = 38;
     9d8:	95 8f       	std	Z+29, r25	; 0x1d
     9da:	84 8f       	std	Z+28, r24	; 0x1c
    cfg.brake2Speed    = 50;
     9dc:	82 e3       	ldi	r24, 0x32	; 50
     9de:	90 e0       	ldi	r25, 0x00	; 0
     9e0:	97 8f       	std	Z+31, r25	; 0x1f
     9e2:	86 8f       	std	Z+30, r24	; 0x1e
    cfg.brake2Time_ms  = 55;
     9e4:	87 e3       	ldi	r24, 0x37	; 55
     9e6:	90 e0       	ldi	r25, 0x00	; 0
     9e8:	91 a3       	std	Z+33, r25	; 0x21
     9ea:	80 a3       	std	Z+32, r24	; 0x20
     9ec:	08 95       	ret

000009ee <path_clear>:
static uint8_t pathLen = 0;

// Resets path
static void path_clear(void)
{
    pathLen = 0;
     9ee:	10 92 8e 01 	sts	0x018E, r1	; 0x80018e <pathLen>
    path[0] = 0;
     9f2:	10 92 8f 01 	sts	0x018F, r1	; 0x80018f <path>
     9f6:	08 95       	ret

000009f8 <path_add>:
}

// Adds a turn to the path when given 'L', 'S', 'B', or 'R'
static void path_add(char step)
{
    if (pathLen < PATH_MAX - 1)
     9f8:	e0 91 8e 01 	lds	r30, 0x018E	; 0x80018e <pathLen>
     9fc:	ef 31       	cpi	r30, 0x1F	; 31
     9fe:	68 f4       	brcc	.+26     	; 0xa1a <__DATA_REGION_LENGTH__+0x1a>
    {
        path[pathLen++] = step;
     a00:	91 e0       	ldi	r25, 0x01	; 1
     a02:	9e 0f       	add	r25, r30
     a04:	90 93 8e 01 	sts	0x018E, r25	; 0x80018e <pathLen>
     a08:	f0 e0       	ldi	r31, 0x00	; 0
     a0a:	e1 57       	subi	r30, 0x71	; 113
     a0c:	fe 4f       	sbci	r31, 0xFE	; 254
     a0e:	80 83       	st	Z, r24
        path[pathLen]   = 0;
     a10:	e9 2f       	mov	r30, r25
     a12:	f0 e0       	ldi	r31, 0x00	; 0
     a14:	e1 57       	subi	r30, 0x71	; 113
     a16:	fe 4f       	sbci	r31, 0xFE	; 254
     a18:	10 82       	st	Z, r1
     a1a:	08 95       	ret

00000a1c <path_simplify>:
}

// Replace the pattern 'x''U''x' with equivalent turn
static void path_simplify(void)
{
    if (pathLen < 3) return;
     a1c:	e0 91 8e 01 	lds	r30, 0x018E	; 0x80018e <pathLen>
     a20:	e3 30       	cpi	r30, 0x03	; 3
     a22:	08 f4       	brcc	.+2      	; 0xa26 <path_simplify+0xa>
     a24:	55 c0       	rjmp	.+170    	; 0xad0 <path_simplify+0xb4>
    if (path[pathLen - 2] != 'U') return;  // only collapse when we just did a U-turn
     a26:	2e 2f       	mov	r18, r30
     a28:	30 e0       	ldi	r19, 0x00	; 0
     a2a:	d9 01       	movw	r26, r18
     a2c:	a3 57       	subi	r26, 0x73	; 115
     a2e:	be 4f       	sbci	r27, 0xFE	; 254
     a30:	8c 91       	ld	r24, X
     a32:	85 35       	cpi	r24, 0x55	; 85
     a34:	09 f0       	breq	.+2      	; 0xa38 <path_simplify+0x1c>
     a36:	4c c0       	rjmp	.+152    	; 0xad0 <path_simplify+0xb4>
     a38:	91 e0       	ldi	r25, 0x01	; 1
     a3a:	60 e0       	ldi	r22, 0x00	; 0
     a3c:	70 e0       	ldi	r23, 0x00	; 0
     a3e:	15 c0       	rjmp	.+42     	; 0xa6a <path_simplify+0x4e>

    int angle = 0;
    for (uint8_t k = 1; k <= 3; k++)
    {
        char c = path[pathLen - k];
     a40:	d9 01       	movw	r26, r18
     a42:	a9 1b       	sub	r26, r25
     a44:	b1 09       	sbc	r27, r1
     a46:	a1 57       	subi	r26, 0x71	; 113
     a48:	be 4f       	sbci	r27, 0xFE	; 254
     a4a:	4c 91       	ld	r20, X
        if (c == 'R') angle += 90;
     a4c:	42 35       	cpi	r20, 0x52	; 82
     a4e:	19 f4       	brne	.+6      	; 0xa56 <path_simplify+0x3a>
     a50:	66 5a       	subi	r22, 0xA6	; 166
     a52:	7f 4f       	sbci	r23, 0xFF	; 255
     a54:	09 c0       	rjmp	.+18     	; 0xa68 <path_simplify+0x4c>
        else if (c == 'L') angle += 270;
     a56:	4c 34       	cpi	r20, 0x4C	; 76
     a58:	19 f4       	brne	.+6      	; 0xa60 <path_simplify+0x44>
     a5a:	62 5f       	subi	r22, 0xF2	; 242
     a5c:	7e 4f       	sbci	r23, 0xFE	; 254
     a5e:	04 c0       	rjmp	.+8      	; 0xa68 <path_simplify+0x4c>
        else if (c == 'U') angle += 180;
     a60:	45 35       	cpi	r20, 0x55	; 85
     a62:	11 f4       	brne	.+4      	; 0xa68 <path_simplify+0x4c>
     a64:	6c 54       	subi	r22, 0x4C	; 76
     a66:	7f 4f       	sbci	r23, 0xFF	; 255
{
    if (pathLen < 3) return;
    if (path[pathLen - 2] != 'U') return;  // only collapse when we just did a U-turn

    int angle = 0;
    for (uint8_t k = 1; k <= 3; k++)
     a68:	9f 5f       	subi	r25, 0xFF	; 255
     a6a:	94 30       	cpi	r25, 0x04	; 4
     a6c:	48 f3       	brcs	.-46     	; 0xa40 <path_simplify+0x24>
        char c = path[pathLen - k];
        if (c == 'R') angle += 90;
        else if (c == 'L') angle += 270;
        else if (c == 'U') angle += 180;
    }
    angle %= 360;
     a6e:	cb 01       	movw	r24, r22
     a70:	68 e6       	ldi	r22, 0x68	; 104
     a72:	71 e0       	ldi	r23, 0x01	; 1
     a74:	0e 94 0a 0b 	call	0x1614	; 0x1614 <__divmodhi4>

    switch (angle)
     a78:	8a 35       	cpi	r24, 0x5A	; 90
     a7a:	91 05       	cpc	r25, r1
     a7c:	89 f0       	breq	.+34     	; 0xaa0 <path_simplify+0x84>
     a7e:	1c f4       	brge	.+6      	; 0xa86 <path_simplify+0x6a>
     a80:	89 2b       	or	r24, r25
     a82:	41 f0       	breq	.+16     	; 0xa94 <path_simplify+0x78>
     a84:	1e c0       	rjmp	.+60     	; 0xac2 <path_simplify+0xa6>
     a86:	84 3b       	cpi	r24, 0xB4	; 180
     a88:	91 05       	cpc	r25, r1
     a8a:	81 f0       	breq	.+32     	; 0xaac <path_simplify+0x90>
     a8c:	8e 30       	cpi	r24, 0x0E	; 14
     a8e:	91 40       	sbci	r25, 0x01	; 1
     a90:	99 f0       	breq	.+38     	; 0xab8 <path_simplify+0x9c>
     a92:	17 c0       	rjmp	.+46     	; 0xac2 <path_simplify+0xa6>
    {
        case 0:   path[pathLen - 3] = 'S'; break;
     a94:	d9 01       	movw	r26, r18
     a96:	a4 57       	subi	r26, 0x74	; 116
     a98:	be 4f       	sbci	r27, 0xFE	; 254
     a9a:	83 e5       	ldi	r24, 0x53	; 83
     a9c:	8c 93       	st	X, r24
     a9e:	11 c0       	rjmp	.+34     	; 0xac2 <path_simplify+0xa6>
        case 90:  path[pathLen - 3] = 'R'; break;
     aa0:	d9 01       	movw	r26, r18
     aa2:	a4 57       	subi	r26, 0x74	; 116
     aa4:	be 4f       	sbci	r27, 0xFE	; 254
     aa6:	82 e5       	ldi	r24, 0x52	; 82
     aa8:	8c 93       	st	X, r24
     aaa:	0b c0       	rjmp	.+22     	; 0xac2 <path_simplify+0xa6>
        case 180: path[pathLen - 3] = 'U'; break;
     aac:	d9 01       	movw	r26, r18
     aae:	a4 57       	subi	r26, 0x74	; 116
     ab0:	be 4f       	sbci	r27, 0xFE	; 254
     ab2:	85 e5       	ldi	r24, 0x55	; 85
     ab4:	8c 93       	st	X, r24
     ab6:	05 c0       	rjmp	.+10     	; 0xac2 <path_simplify+0xa6>
        case 270: path[pathLen - 3] = 'L'; break;
     ab8:	d9 01       	movw	r26, r18
     aba:	a4 57       	subi	r26, 0x74	; 116
     abc:	be 4f       	sbci	r27, 0xFE	; 254
     abe:	8c e4       	ldi	r24, 0x4C	; 76
     ac0:	8c 93       	st	X, r24
        default:  /* Never reached */    break;
    }

    pathLen -= 2;
     ac2:	e2 50       	subi	r30, 0x02	; 2
     ac4:	e0 93 8e 01 	sts	0x018E, r30	; 0x80018e <pathLen>
    path[pathLen] = 0;
     ac8:	f0 e0       	ldi	r31, 0x00	; 0
     aca:	e1 57       	subi	r30, 0x71	; 113
     acc:	fe 4f       	sbci	r31, 0xFE	; 254
     ace:	10 82       	st	Z, r1
     ad0:	08 95       	ret

00000ad2 <choose_turn>:

// Selects turn based on Left Hand on Wall priorities
static char choose_turn(bool left_ok, bool straight_ok, bool right_ok)
{
    // Left-hand rule
    if (left_ok)     return 'L';
     ad2:	81 11       	cpse	r24, r1
     ad4:	06 c0       	rjmp	.+12     	; 0xae2 <choose_turn+0x10>
    if (straight_ok) return 'S';
     ad6:	61 11       	cpse	r22, r1
     ad8:	06 c0       	rjmp	.+12     	; 0xae6 <choose_turn+0x14>
    if (right_ok)    return 'R';
     ada:	44 23       	and	r20, r20
     adc:	31 f0       	breq	.+12     	; 0xaea <choose_turn+0x18>
     ade:	82 e5       	ldi	r24, 0x52	; 82
     ae0:	08 95       	ret

// Selects turn based on Left Hand on Wall priorities
static char choose_turn(bool left_ok, bool straight_ok, bool right_ok)
{
    // Left-hand rule
    if (left_ok)     return 'L';
     ae2:	8c e4       	ldi	r24, 0x4C	; 76
     ae4:	08 95       	ret
    if (straight_ok) return 'S';
     ae6:	83 e5       	ldi	r24, 0x53	; 83
     ae8:	08 95       	ret
    if (right_ok)    return 'R';
    return 'U'; // dead end: U-turn
     aea:	85 e5       	ldi	r24, 0x55	; 85
}
     aec:	08 95       	ret

00000aee <oled_clearPage>:
    oled_setCursor(page, col);
    while (*s) { oled_putChar(*s++); }
}

static void oled_clearPage(uint8_t page)
{
     aee:	cf 93       	push	r28
     af0:	c8 2f       	mov	r28, r24
    OLED_commandMode();
     af2:	0e 94 5b 0a 	call	0x14b6	; 0x14b6 <OLED_commandMode>
    OLED_write(SET_PAGE_ADDR | (page & 0x0F));
     af6:	8c 2f       	mov	r24, r28
     af8:	8f 70       	andi	r24, 0x0F	; 15
     afa:	80 6b       	ori	r24, 0xB0	; 176
     afc:	0e 94 63 0a 	call	0x14c6	; 0x14c6 <OLED_write>
    OLED_write(SET_COL_ADDR_HIGH | 0);
     b00:	80 e1       	ldi	r24, 0x10	; 16
     b02:	0e 94 63 0a 	call	0x14c6	; 0x14c6 <OLED_write>
    OLED_write(SET_COL_ADDR_LOW  | 2);
     b06:	82 e0       	ldi	r24, 0x02	; 2
     b08:	0e 94 63 0a 	call	0x14c6	; 0x14c6 <OLED_write>
    OLED_dataMode();
     b0c:	0e 94 5f 0a 	call	0x14be	; 0x14be <OLED_dataMode>
    for (uint8_t i = 0; i < 128; i++) { OLED_write(0); }
     b10:	c0 e0       	ldi	r28, 0x00	; 0
     b12:	04 c0       	rjmp	.+8      	; 0xb1c <__stack+0x1d>
     b14:	80 e0       	ldi	r24, 0x00	; 0
     b16:	0e 94 63 0a 	call	0x14c6	; 0x14c6 <OLED_write>
     b1a:	cf 5f       	subi	r28, 0xFF	; 255
     b1c:	cc 23       	and	r28, r28
     b1e:	d4 f7       	brge	.-12     	; 0xb14 <__stack+0x15>
}
     b20:	cf 91       	pop	r28
     b22:	08 95       	ret

00000b24 <oled_setCursor>:
}

//OLED helper methods for better printing

static void oled_setCursor(uint8_t page, uint8_t col)
{
     b24:	cf 93       	push	r28
     b26:	df 93       	push	r29
     b28:	c8 2f       	mov	r28, r24
     b2a:	d6 2f       	mov	r29, r22
    OLED_commandMode();
     b2c:	0e 94 5b 0a 	call	0x14b6	; 0x14b6 <OLED_commandMode>
    OLED_write(SET_PAGE_ADDR | (page & 0x0F));
     b30:	8c 2f       	mov	r24, r28
     b32:	8f 70       	andi	r24, 0x0F	; 15
     b34:	80 6b       	ori	r24, 0xB0	; 176
     b36:	0e 94 63 0a 	call	0x14c6	; 0x14c6 <OLED_write>
    OLED_write(SET_COL_ADDR_HIGH | ((col >> 4) & 0x0F));
     b3a:	8d 2f       	mov	r24, r29
     b3c:	82 95       	swap	r24
     b3e:	8f 70       	andi	r24, 0x0F	; 15
     b40:	80 61       	ori	r24, 0x10	; 16
     b42:	0e 94 63 0a 	call	0x14c6	; 0x14c6 <OLED_write>
    OLED_write(SET_COL_ADDR_LOW  | (col & 0x0F));
     b46:	8d 2f       	mov	r24, r29
     b48:	8f 70       	andi	r24, 0x0F	; 15
     b4a:	0e 94 63 0a 	call	0x14c6	; 0x14c6 <OLED_write>
    OLED_dataMode();
     b4e:	0e 94 5f 0a 	call	0x14be	; 0x14be <OLED_dataMode>
}
     b52:	df 91       	pop	r29
     b54:	cf 91       	pop	r28
     b56:	08 95       	ret

00000b58 <oled_putChar>:

static void oled_putChar(char c)
{
     b58:	cf 93       	push	r28
     b5a:	df 93       	push	r29
     b5c:	d8 2f       	mov	r29, r24
    extern uint8_t getGlyphColumn(uint8_t, uint8_t);
    for (uint8_t i = 0; i < 5; i++)
     b5e:	c0 e0       	ldi	r28, 0x00	; 0
     b60:	07 c0       	rjmp	.+14     	; 0xb70 <oled_putChar+0x18>
    {
        uint8_t col = getGlyphColumn((uint8_t)c, i);
     b62:	6c 2f       	mov	r22, r28
     b64:	8d 2f       	mov	r24, r29
     b66:	0e 94 e7 0a 	call	0x15ce	; 0x15ce <getGlyphColumn>
        OLED_write(col);
     b6a:	0e 94 63 0a 	call	0x14c6	; 0x14c6 <OLED_write>
}

static void oled_putChar(char c)
{
    extern uint8_t getGlyphColumn(uint8_t, uint8_t);
    for (uint8_t i = 0; i < 5; i++)
     b6e:	cf 5f       	subi	r28, 0xFF	; 255
     b70:	c5 30       	cpi	r28, 0x05	; 5
     b72:	b8 f3       	brcs	.-18     	; 0xb62 <oled_putChar+0xa>
    {
        uint8_t col = getGlyphColumn((uint8_t)c, i);
        OLED_write(col);
    }
    OLED_write(0);
     b74:	80 e0       	ldi	r24, 0x00	; 0
     b76:	0e 94 63 0a 	call	0x14c6	; 0x14c6 <OLED_write>
}
     b7a:	df 91       	pop	r29
     b7c:	cf 91       	pop	r28
     b7e:	08 95       	ret

00000b80 <oled_putStringAt>:

static void oled_putStringAt(uint8_t page, uint8_t col, const char *s)
{
     b80:	cf 93       	push	r28
     b82:	df 93       	push	r29
     b84:	ea 01       	movw	r28, r20
    oled_setCursor(page, col);
     b86:	0e 94 92 05 	call	0xb24	; 0xb24 <oled_setCursor>
    while (*s) { oled_putChar(*s++); }
     b8a:	03 c0       	rjmp	.+6      	; 0xb92 <oled_putStringAt+0x12>
     b8c:	21 96       	adiw	r28, 0x01	; 1
     b8e:	0e 94 ac 05 	call	0xb58	; 0xb58 <oled_putChar>
     b92:	88 81       	ld	r24, Y
     b94:	81 11       	cpse	r24, r1
     b96:	fa cf       	rjmp	.-12     	; 0xb8c <oled_putStringAt+0xc>
}
     b98:	df 91       	pop	r29
     b9a:	cf 91       	pop	r28
     b9c:	08 95       	ret

00000b9e <oled_startup>:
    for (uint8_t i = 0; i < 128; i++) { OLED_write(0); }
}

static void oled_startup(void)
{
    OLED_init();
     b9e:	0e 94 2a 0a 	call	0x1454	; 0x1454 <OLED_init>
    OLED_reset();
     ba2:	0e 94 4c 0a 	call	0x1498	; 0x1498 <OLED_reset>
    OLED_clearDisplayRam();
     ba6:	0e 94 af 0a 	call	0x155e	; 0x155e <OLED_clearDisplayRam>
    OLED_configureDefault();
     baa:	0e 94 d3 0a 	call	0x15a6	; 0x15a6 <OLED_configureDefault>
    oled_putStringAt(0, 0, "Maze Solver");
     bae:	44 e0       	ldi	r20, 0x04	; 4
     bb0:	51 e0       	ldi	r21, 0x01	; 1
     bb2:	60 e0       	ldi	r22, 0x00	; 0
     bb4:	80 e0       	ldi	r24, 0x00	; 0
     bb6:	0e 94 c0 05 	call	0xb80	; 0xb80 <oled_putStringAt>
    oled_putStringAt(1, 0, "Calibrating");
     bba:	40 e1       	ldi	r20, 0x10	; 16
     bbc:	51 e0       	ldi	r21, 0x01	; 1
     bbe:	60 e0       	ldi	r22, 0x00	; 0
     bc0:	81 e0       	ldi	r24, 0x01	; 1
     bc2:	0e 94 c0 05 	call	0xb80	; 0xb80 <oled_putStringAt>
     bc6:	08 95       	ret

00000bc8 <rotate_robot>:
}


// Turns given a char from the path array
static void rotate_robot(char code)
{
     bc8:	cf 93       	push	r28
     bca:	df 93       	push	r29
    switch (code)
     bcc:	82 35       	cpi	r24, 0x52	; 82
     bce:	f9 f0       	breq	.+62     	; 0xc0e <rotate_robot+0x46>
     bd0:	85 35       	cpi	r24, 0x55	; 85
     bd2:	b9 f1       	breq	.+110    	; 0xc42 <rotate_robot+0x7a>
     bd4:	8c 34       	cpi	r24, 0x4C	; 76
     bd6:	09 f0       	breq	.+2      	; 0xbda <rotate_robot+0x12>
     bd8:	4f c0       	rjmp	.+158    	; 0xc78 <rotate_robot+0xb0>
    {
        case 'L': // 90 deg left
            motors_set_speeds(-(int16_t)cfg.turnSpeed, (int16_t)cfg.turnSpeed);
     bda:	c5 eb       	ldi	r28, 0xB5	; 181
     bdc:	d1 e0       	ldi	r29, 0x01	; 1
     bde:	8e 89       	ldd	r24, Y+22	; 0x16
     be0:	9f 89       	ldd	r25, Y+23	; 0x17
     be2:	bc 01       	movw	r22, r24
     be4:	91 95       	neg	r25
     be6:	81 95       	neg	r24
     be8:	91 09       	sbc	r25, r1
     bea:	0e 94 e1 09 	call	0x13c2	; 0x13c2 <motors_set_speeds>
            wait_ms(cfg.quarterTurn_ms);
     bee:	88 8d       	ldd	r24, Y+24	; 0x18
     bf0:	99 8d       	ldd	r25, Y+25	; 0x19
     bf2:	07 c0       	rjmp	.+14     	; 0xc02 <rotate_robot+0x3a>
     bf4:	8f e9       	ldi	r24, 0x9F	; 159
     bf6:	9f e0       	ldi	r25, 0x0F	; 15
     bf8:	01 97       	sbiw	r24, 0x01	; 1
     bfa:	f1 f7       	brne	.-4      	; 0xbf8 <rotate_robot+0x30>
     bfc:	00 c0       	rjmp	.+0      	; 0xbfe <rotate_robot+0x36>
     bfe:	00 00       	nop


// Time helper for larger ms delays
static inline void wait_ms(uint16_t ms)
{
    while (ms--)
     c00:	c9 01       	movw	r24, r18
     c02:	9c 01       	movw	r18, r24
     c04:	21 50       	subi	r18, 0x01	; 1
     c06:	31 09       	sbc	r19, r1
     c08:	89 2b       	or	r24, r25
     c0a:	a1 f7       	brne	.-24     	; 0xbf4 <rotate_robot+0x2c>
     c0c:	35 c0       	rjmp	.+106    	; 0xc78 <rotate_robot+0xb0>
            motors_set_speeds(-(int16_t)cfg.turnSpeed, (int16_t)cfg.turnSpeed);
            wait_ms(cfg.quarterTurn_ms);
            break;

        case 'R': // 90 deg right
            motors_set_speeds((int16_t)cfg.turnSpeed, -(int16_t)cfg.turnSpeed);
     c0e:	c5 eb       	ldi	r28, 0xB5	; 181
     c10:	d1 e0       	ldi	r29, 0x01	; 1
     c12:	8e 89       	ldd	r24, Y+22	; 0x16
     c14:	9f 89       	ldd	r25, Y+23	; 0x17
     c16:	66 27       	eor	r22, r22
     c18:	77 27       	eor	r23, r23
     c1a:	68 1b       	sub	r22, r24
     c1c:	79 0b       	sbc	r23, r25
     c1e:	0e 94 e1 09 	call	0x13c2	; 0x13c2 <motors_set_speeds>
            wait_ms(cfg.quarterTurn_ms);
     c22:	88 8d       	ldd	r24, Y+24	; 0x18
     c24:	99 8d       	ldd	r25, Y+25	; 0x19
     c26:	07 c0       	rjmp	.+14     	; 0xc36 <rotate_robot+0x6e>
     c28:	8f e9       	ldi	r24, 0x9F	; 159
     c2a:	9f e0       	ldi	r25, 0x0F	; 15
     c2c:	01 97       	sbiw	r24, 0x01	; 1
     c2e:	f1 f7       	brne	.-4      	; 0xc2c <rotate_robot+0x64>
     c30:	00 c0       	rjmp	.+0      	; 0xc32 <rotate_robot+0x6a>
     c32:	00 00       	nop


// Time helper for larger ms delays
static inline void wait_ms(uint16_t ms)
{
    while (ms--)
     c34:	c9 01       	movw	r24, r18
     c36:	9c 01       	movw	r18, r24
     c38:	21 50       	subi	r18, 0x01	; 1
     c3a:	31 09       	sbc	r19, r1
     c3c:	89 2b       	or	r24, r25
     c3e:	a1 f7       	brne	.-24     	; 0xc28 <rotate_robot+0x60>
     c40:	1b c0       	rjmp	.+54     	; 0xc78 <rotate_robot+0xb0>
            motors_set_speeds((int16_t)cfg.turnSpeed, -(int16_t)cfg.turnSpeed);
            wait_ms(cfg.quarterTurn_ms);
            break;

        case 'U': // 180 deg
            motors_set_speeds((int16_t)cfg.turnSpeed, -(int16_t)cfg.turnSpeed);
     c42:	c5 eb       	ldi	r28, 0xB5	; 181
     c44:	d1 e0       	ldi	r29, 0x01	; 1
     c46:	8e 89       	ldd	r24, Y+22	; 0x16
     c48:	9f 89       	ldd	r25, Y+23	; 0x17
     c4a:	66 27       	eor	r22, r22
     c4c:	77 27       	eor	r23, r23
     c4e:	68 1b       	sub	r22, r24
     c50:	79 0b       	sbc	r23, r25
     c52:	0e 94 e1 09 	call	0x13c2	; 0x13c2 <motors_set_speeds>
            wait_ms((uint16_t)(2 * cfg.quarterTurn_ms));
     c56:	88 8d       	ldd	r24, Y+24	; 0x18
     c58:	99 8d       	ldd	r25, Y+25	; 0x19
     c5a:	88 0f       	add	r24, r24
     c5c:	99 1f       	adc	r25, r25
     c5e:	07 c0       	rjmp	.+14     	; 0xc6e <rotate_robot+0xa6>
     c60:	8f e9       	ldi	r24, 0x9F	; 159
     c62:	9f e0       	ldi	r25, 0x0F	; 15
     c64:	01 97       	sbiw	r24, 0x01	; 1
     c66:	f1 f7       	brne	.-4      	; 0xc64 <rotate_robot+0x9c>
     c68:	00 c0       	rjmp	.+0      	; 0xc6a <rotate_robot+0xa2>
     c6a:	00 00       	nop


// Time helper for larger ms delays
static inline void wait_ms(uint16_t ms)
{
    while (ms--)
     c6c:	c9 01       	movw	r24, r18
     c6e:	9c 01       	movw	r18, r24
     c70:	21 50       	subi	r18, 0x01	; 1
     c72:	31 09       	sbc	r19, r1
     c74:	89 2b       	or	r24, r25
     c76:	a1 f7       	brne	.-24     	; 0xc60 <rotate_robot+0x98>

        case 'S': // straight
        default:
            break;
    }
    motors_set_speeds(0, 0);
     c78:	60 e0       	ldi	r22, 0x00	; 0
     c7a:	70 e0       	ldi	r23, 0x00	; 0
     c7c:	80 e0       	ldi	r24, 0x00	; 0
     c7e:	90 e0       	ldi	r25, 0x00	; 0
     c80:	0e 94 e1 09 	call	0x13c2	; 0x13c2 <motors_set_speeds>
     c84:	9f ef       	ldi	r25, 0xFF	; 255
     c86:	29 ef       	ldi	r18, 0xF9	; 249
     c88:	80 e0       	ldi	r24, 0x00	; 0
     c8a:	91 50       	subi	r25, 0x01	; 1
     c8c:	20 40       	sbci	r18, 0x00	; 0
     c8e:	80 40       	sbci	r24, 0x00	; 0
     c90:	e1 f7       	brne	.-8      	; 0xc8a <rotate_robot+0xc2>
     c92:	00 c0       	rjmp	.+0      	; 0xc94 <rotate_robot+0xcc>
     c94:	00 00       	nop
    _delay_ms(20);
}
     c96:	df 91       	pop	r29
     c98:	cf 91       	pop	r28
     c9a:	08 95       	ret

00000c9c <follow_segment_until_break>:
};

//  Line follower for a single segment - 
// Runs until nothing ahead or a side branch is detected
static void follow_segment_until_break(void)
{
     c9c:	4f 92       	push	r4
     c9e:	5f 92       	push	r5
     ca0:	6f 92       	push	r6
     ca2:	7f 92       	push	r7
     ca4:	8f 92       	push	r8
     ca6:	9f 92       	push	r9
     ca8:	af 92       	push	r10
     caa:	bf 92       	push	r11
     cac:	cf 92       	push	r12
     cae:	df 92       	push	r13
     cb0:	ef 92       	push	r14
     cb2:	ff 92       	push	r15
     cb4:	0f 93       	push	r16
     cb6:	1f 93       	push	r17
     cb8:	cf 93       	push	r28
     cba:	df 93       	push	r29
     cbc:	cd b7       	in	r28, 0x3d	; 61
     cbe:	de b7       	in	r29, 0x3e	; 62
     cc0:	2e 97       	sbiw	r28, 0x0e	; 14
     cc2:	0f b6       	in	r0, 0x3f	; 63
     cc4:	f8 94       	cli
     cc6:	de bf       	out	0x3e, r29	; 62
     cc8:	0f be       	out	0x3f, r0	; 63
     cca:	cd bf       	out	0x3d, r28	; 61
    uint16_t sense[NUM_SENSORS];
    lastError = 0;
     ccc:	10 92 b0 01 	sts	0x01B0, r1	; 0x8001b0 <lastError+0x1>
     cd0:	10 92 af 01 	sts	0x01AF, r1	; 0x8001af <lastError>

    while (1)
    {
        uint16_t pos = line_readLineBlack(sense, LS_MODE_On);  // 0..4000
     cd4:	61 e0       	ldi	r22, 0x01	; 1
     cd6:	ce 01       	movw	r24, r28
     cd8:	01 96       	adiw	r24, 0x01	; 1
     cda:	0e 94 b4 04 	call	0x968	; 0x968 <line_readLineBlack>
        int16_t  e   = (int16_t)pos - 2000;
     cde:	8c 01       	movw	r16, r24
     ce0:	00 5d       	subi	r16, 0xD0	; 208
     ce2:	17 40       	sbci	r17, 0x07	; 7

        // P, D (fixed point scaled by 256)
        int16_t P = (int16_t)(((int32_t)e - 0) * cfg.Kp >> 8);
     ce4:	48 01       	movw	r8, r16
     ce6:	01 2e       	mov	r0, r17
     ce8:	00 0c       	add	r0, r0
     cea:	aa 08       	sbc	r10, r10
     cec:	bb 08       	sbc	r11, r11
     cee:	e5 eb       	ldi	r30, 0xB5	; 181
     cf0:	f1 e0       	ldi	r31, 0x01	; 1
     cf2:	a0 85       	ldd	r26, Z+8	; 0x08
     cf4:	b1 85       	ldd	r27, Z+9	; 0x09
     cf6:	a5 01       	movw	r20, r10
     cf8:	94 01       	movw	r18, r8
     cfa:	0e 94 6e 0b 	call	0x16dc	; 0x16dc <__muluhisi3>
     cfe:	47 2e       	mov	r4, r23
     d00:	58 2e       	mov	r5, r24
     d02:	69 2e       	mov	r6, r25
     d04:	77 24       	eor	r7, r7
     d06:	67 fc       	sbrc	r6, 7
     d08:	7a 94       	dec	r7
        int16_t D = (int16_t)(((int32_t)e - lastError) * cfg.Kd >> 8);
     d0a:	80 91 af 01 	lds	r24, 0x01AF	; 0x8001af <lastError>
     d0e:	90 91 b0 01 	lds	r25, 0x01B0	; 0x8001b0 <lastError+0x1>
     d12:	09 2e       	mov	r0, r25
     d14:	00 0c       	add	r0, r0
     d16:	aa 0b       	sbc	r26, r26
     d18:	bb 0b       	sbc	r27, r27
     d1a:	28 1b       	sub	r18, r24
     d1c:	39 0b       	sbc	r19, r25
     d1e:	4a 0b       	sbc	r20, r26
     d20:	5b 0b       	sbc	r21, r27
     d22:	a2 85       	ldd	r26, Z+10	; 0x0a
     d24:	b3 85       	ldd	r27, Z+11	; 0x0b
     d26:	0e 94 6e 0b 	call	0x16dc	; 0x16dc <__muluhisi3>
     d2a:	c7 2e       	mov	r12, r23
     d2c:	d8 2e       	mov	r13, r24
     d2e:	e9 2e       	mov	r14, r25
     d30:	ff 24       	eor	r15, r15
     d32:	e7 fc       	sbrc	r14, 7
     d34:	fa 94       	dec	r15

        // crude I with bleed when line is lost
        uint32_t sum = (uint32_t)sense[0] + sense[1] + sense[2] + sense[3] + sense[4];
     d36:	29 81       	ldd	r18, Y+1	; 0x01
     d38:	3a 81       	ldd	r19, Y+2	; 0x02
     d3a:	8b 81       	ldd	r24, Y+3	; 0x03
     d3c:	9c 81       	ldd	r25, Y+4	; 0x04
     d3e:	a0 e0       	ldi	r26, 0x00	; 0
     d40:	b0 e0       	ldi	r27, 0x00	; 0
     d42:	82 0f       	add	r24, r18
     d44:	93 1f       	adc	r25, r19
     d46:	a1 1d       	adc	r26, r1
     d48:	b1 1d       	adc	r27, r1
     d4a:	2d 81       	ldd	r18, Y+5	; 0x05
     d4c:	3e 81       	ldd	r19, Y+6	; 0x06
     d4e:	82 0f       	add	r24, r18
     d50:	93 1f       	adc	r25, r19
     d52:	a1 1d       	adc	r26, r1
     d54:	b1 1d       	adc	r27, r1
     d56:	2f 81       	ldd	r18, Y+7	; 0x07
     d58:	38 85       	ldd	r19, Y+8	; 0x08
     d5a:	82 0f       	add	r24, r18
     d5c:	93 1f       	adc	r25, r19
     d5e:	a1 1d       	adc	r26, r1
     d60:	b1 1d       	adc	r27, r1
     d62:	29 85       	ldd	r18, Y+9	; 0x09
     d64:	3a 85       	ldd	r19, Y+10	; 0x0a
     d66:	82 0f       	add	r24, r18
     d68:	93 1f       	adc	r25, r19
     d6a:	a1 1d       	adc	r26, r1
     d6c:	b1 1d       	adc	r27, r1
        if (sum > 200) { i_sum += e; }
     d6e:	89 3c       	cpi	r24, 0xC9	; 201
     d70:	91 05       	cpc	r25, r1
     d72:	a1 05       	cpc	r26, r1
     d74:	b1 05       	cpc	r27, r1
     d76:	a8 f0       	brcs	.+42     	; 0xda2 <follow_segment_until_break+0x106>
     d78:	80 91 b1 01 	lds	r24, 0x01B1	; 0x8001b1 <i_sum>
     d7c:	90 91 b2 01 	lds	r25, 0x01B2	; 0x8001b2 <i_sum+0x1>
     d80:	a0 91 b3 01 	lds	r26, 0x01B3	; 0x8001b3 <i_sum+0x2>
     d84:	b0 91 b4 01 	lds	r27, 0x01B4	; 0x8001b4 <i_sum+0x3>
     d88:	88 0e       	add	r8, r24
     d8a:	99 1e       	adc	r9, r25
     d8c:	aa 1e       	adc	r10, r26
     d8e:	bb 1e       	adc	r11, r27
     d90:	80 92 b1 01 	sts	0x01B1, r8	; 0x8001b1 <i_sum>
     d94:	90 92 b2 01 	sts	0x01B2, r9	; 0x8001b2 <i_sum+0x1>
     d98:	a0 92 b3 01 	sts	0x01B3, r10	; 0x8001b3 <i_sum+0x2>
     d9c:	b0 92 b4 01 	sts	0x01B4, r11	; 0x8001b4 <i_sum+0x3>
     da0:	1e c0       	rjmp	.+60     	; 0xdde <follow_segment_until_break+0x142>
        else           { i_sum -= (i_sum >> 3); }
     da2:	80 91 b1 01 	lds	r24, 0x01B1	; 0x8001b1 <i_sum>
     da6:	90 91 b2 01 	lds	r25, 0x01B2	; 0x8001b2 <i_sum+0x1>
     daa:	a0 91 b3 01 	lds	r26, 0x01B3	; 0x8001b3 <i_sum+0x2>
     dae:	b0 91 b4 01 	lds	r27, 0x01B4	; 0x8001b4 <i_sum+0x3>
     db2:	ac 01       	movw	r20, r24
     db4:	bd 01       	movw	r22, r26
     db6:	68 94       	set
     db8:	12 f8       	bld	r1, 2
     dba:	75 95       	asr	r23
     dbc:	67 95       	ror	r22
     dbe:	57 95       	ror	r21
     dc0:	47 95       	ror	r20
     dc2:	16 94       	lsr	r1
     dc4:	d1 f7       	brne	.-12     	; 0xdba <follow_segment_until_break+0x11e>
     dc6:	84 1b       	sub	r24, r20
     dc8:	95 0b       	sbc	r25, r21
     dca:	a6 0b       	sbc	r26, r22
     dcc:	b7 0b       	sbc	r27, r23
     dce:	80 93 b1 01 	sts	0x01B1, r24	; 0x8001b1 <i_sum>
     dd2:	90 93 b2 01 	sts	0x01B2, r25	; 0x8001b2 <i_sum+0x1>
     dd6:	a0 93 b3 01 	sts	0x01B3, r26	; 0x8001b3 <i_sum+0x2>
     dda:	b0 93 b4 01 	sts	0x01B4, r27	; 0x8001b4 <i_sum+0x3>

        int32_t I32 = ((int32_t)cfg.Ki * i_sum) >> 8;
     dde:	a0 90 c1 01 	lds	r10, 0x01C1	; 0x8001c1 <cfg+0xc>
     de2:	b0 90 c2 01 	lds	r11, 0x01C2	; 0x8001c2 <cfg+0xd>
     de6:	c5 01       	movw	r24, r10
     de8:	a0 e0       	ldi	r26, 0x00	; 0
     dea:	b0 e0       	ldi	r27, 0x00	; 0
     dec:	8b 87       	std	Y+11, r24	; 0x0b
     dee:	9c 87       	std	Y+12, r25	; 0x0c
     df0:	ad 87       	std	Y+13, r26	; 0x0d
     df2:	be 87       	std	Y+14, r27	; 0x0e
     df4:	60 91 b1 01 	lds	r22, 0x01B1	; 0x8001b1 <i_sum>
     df8:	70 91 b2 01 	lds	r23, 0x01B2	; 0x8001b2 <i_sum+0x1>
     dfc:	80 91 b3 01 	lds	r24, 0x01B3	; 0x8001b3 <i_sum+0x2>
     e00:	90 91 b4 01 	lds	r25, 0x01B4	; 0x8001b4 <i_sum+0x3>
     e04:	2b 85       	ldd	r18, Y+11	; 0x0b
     e06:	3c 85       	ldd	r19, Y+12	; 0x0c
     e08:	4d 85       	ldd	r20, Y+13	; 0x0d
     e0a:	5e 85       	ldd	r21, Y+14	; 0x0e
     e0c:	0e 94 fa 0a 	call	0x15f4	; 0x15f4 <__mulsi3>
     e10:	bb 27       	eor	r27, r27
     e12:	97 fd       	sbrc	r25, 7
     e14:	ba 95       	dec	r27
     e16:	a9 2f       	mov	r26, r25
     e18:	98 2f       	mov	r25, r24
     e1a:	87 2f       	mov	r24, r23
        if (I32 >  I_LIM) { I32 =  I_LIM; if (cfg.Ki) i_sum = ((int32_t)I_LIM << 8) / cfg.Ki; }
     e1c:	87 39       	cpi	r24, 0x97	; 151
     e1e:	91 05       	cpc	r25, r1
     e20:	a1 05       	cpc	r26, r1
     e22:	b1 05       	cpc	r27, r1
     e24:	d4 f0       	brlt	.+52     	; 0xe5a <follow_segment_until_break+0x1be>
     e26:	a1 14       	cp	r10, r1
     e28:	b1 04       	cpc	r11, r1
     e2a:	99 f0       	breq	.+38     	; 0xe52 <follow_segment_until_break+0x1b6>
     e2c:	60 e0       	ldi	r22, 0x00	; 0
     e2e:	76 e9       	ldi	r23, 0x96	; 150
     e30:	80 e0       	ldi	r24, 0x00	; 0
     e32:	90 e0       	ldi	r25, 0x00	; 0
     e34:	0e 94 40 0b 	call	0x1680	; 0x1680 <__divmodsi4>
     e38:	20 93 b1 01 	sts	0x01B1, r18	; 0x8001b1 <i_sum>
     e3c:	30 93 b2 01 	sts	0x01B2, r19	; 0x8001b2 <i_sum+0x1>
     e40:	40 93 b3 01 	sts	0x01B3, r20	; 0x8001b3 <i_sum+0x2>
     e44:	50 93 b4 01 	sts	0x01B4, r21	; 0x8001b4 <i_sum+0x3>
     e48:	86 e9       	ldi	r24, 0x96	; 150
     e4a:	90 e0       	ldi	r25, 0x00	; 0
     e4c:	a0 e0       	ldi	r26, 0x00	; 0
     e4e:	b0 e0       	ldi	r27, 0x00	; 0
     e50:	04 c0       	rjmp	.+8      	; 0xe5a <follow_segment_until_break+0x1be>
     e52:	86 e9       	ldi	r24, 0x96	; 150
     e54:	90 e0       	ldi	r25, 0x00	; 0
     e56:	a0 e0       	ldi	r26, 0x00	; 0
     e58:	b0 e0       	ldi	r27, 0x00	; 0
        if (I32 < -I_LIM) { I32 = -I_LIM; if (cfg.Ki) i_sum = -((int32_t)I_LIM << 8) / cfg.Ki; }
     e5a:	8a 36       	cpi	r24, 0x6A	; 106
     e5c:	2f ef       	ldi	r18, 0xFF	; 255
     e5e:	92 07       	cpc	r25, r18
     e60:	a2 07       	cpc	r26, r18
     e62:	b2 07       	cpc	r27, r18
     e64:	ec f4       	brge	.+58     	; 0xea0 <follow_segment_until_break+0x204>
     e66:	ab 28       	or	r10, r11
     e68:	b9 f0       	breq	.+46     	; 0xe98 <follow_segment_until_break+0x1fc>
     e6a:	60 e0       	ldi	r22, 0x00	; 0
     e6c:	7a e6       	ldi	r23, 0x6A	; 106
     e6e:	8f ef       	ldi	r24, 0xFF	; 255
     e70:	9f ef       	ldi	r25, 0xFF	; 255
     e72:	2b 85       	ldd	r18, Y+11	; 0x0b
     e74:	3c 85       	ldd	r19, Y+12	; 0x0c
     e76:	4d 85       	ldd	r20, Y+13	; 0x0d
     e78:	5e 85       	ldd	r21, Y+14	; 0x0e
     e7a:	0e 94 40 0b 	call	0x1680	; 0x1680 <__divmodsi4>
     e7e:	20 93 b1 01 	sts	0x01B1, r18	; 0x8001b1 <i_sum>
     e82:	30 93 b2 01 	sts	0x01B2, r19	; 0x8001b2 <i_sum+0x1>
     e86:	40 93 b3 01 	sts	0x01B3, r20	; 0x8001b3 <i_sum+0x2>
     e8a:	50 93 b4 01 	sts	0x01B4, r21	; 0x8001b4 <i_sum+0x3>
     e8e:	8a e6       	ldi	r24, 0x6A	; 106
     e90:	9f ef       	ldi	r25, 0xFF	; 255
     e92:	af ef       	ldi	r26, 0xFF	; 255
     e94:	bf ef       	ldi	r27, 0xFF	; 255
     e96:	04 c0       	rjmp	.+8      	; 0xea0 <follow_segment_until_break+0x204>
     e98:	8a e6       	ldi	r24, 0x6A	; 106
     e9a:	9f ef       	ldi	r25, 0xFF	; 255
     e9c:	af ef       	ldi	r26, 0xFF	; 255
     e9e:	bf ef       	ldi	r27, 0xFF	; 255

        int16_t I = (int16_t)I32;

        int16_t diff = P + I + D;
     ea0:	bc 01       	movw	r22, r24
     ea2:	64 0d       	add	r22, r4
     ea4:	75 1d       	adc	r23, r5
     ea6:	c6 0e       	add	r12, r22
     ea8:	d7 1e       	adc	r13, r23
        lastError = e;
     eaa:	10 93 b0 01 	sts	0x01B0, r17	; 0x8001b0 <lastError+0x1>
     eae:	00 93 af 01 	sts	0x01AF, r16	; 0x8001af <lastError>

        int16_t l = (int16_t)cfg.cruiseSpeed + diff;
     eb2:	e5 eb       	ldi	r30, 0xB5	; 181
     eb4:	f1 e0       	ldi	r31, 0x01	; 1
     eb6:	84 81       	ldd	r24, Z+4	; 0x04
     eb8:	95 81       	ldd	r25, Z+5	; 0x05
     eba:	a6 01       	movw	r20, r12
     ebc:	48 0f       	add	r20, r24
     ebe:	59 1f       	adc	r21, r25
        int16_t r = (int16_t)cfg.cruiseSpeed - diff;
     ec0:	9c 01       	movw	r18, r24
     ec2:	2c 19       	sub	r18, r12
     ec4:	3d 09       	sbc	r19, r13

        l = clamp16(l, cfg.minSpeed, (int16_t)cfg.maxSpeed);
     ec6:	a0 81       	ld	r26, Z
     ec8:	b1 81       	ldd	r27, Z+1	; 0x01
     eca:	62 81       	ldd	r22, Z+2	; 0x02
     ecc:	73 81       	ldd	r23, Z+3	; 0x03


// Helper method for cutting off a 16 bit int at a given min and max
static inline int16_t clamp16(int16_t val, int16_t min, int16_t max)
{
    if (val < min) return min;
     ece:	46 17       	cp	r20, r22
     ed0:	57 07       	cpc	r21, r23
     ed2:	34 f0       	brlt	.+12     	; 0xee0 <follow_segment_until_break+0x244>
    if (val > max) return max;
     ed4:	a4 17       	cp	r26, r20
     ed6:	b5 07       	cpc	r27, r21
     ed8:	34 f4       	brge	.+12     	; 0xee6 <follow_segment_until_break+0x24a>
     eda:	8a 2f       	mov	r24, r26
     edc:	9b 2f       	mov	r25, r27
     ede:	05 c0       	rjmp	.+10     	; 0xeea <follow_segment_until_break+0x24e>


// Helper method for cutting off a 16 bit int at a given min and max
static inline int16_t clamp16(int16_t val, int16_t min, int16_t max)
{
    if (val < min) return min;
     ee0:	86 2f       	mov	r24, r22
     ee2:	97 2f       	mov	r25, r23
     ee4:	02 c0       	rjmp	.+4      	; 0xeea <follow_segment_until_break+0x24e>
    if (val > max) return max;
    return val;
     ee6:	84 2f       	mov	r24, r20
     ee8:	95 2f       	mov	r25, r21


// Helper method for cutting off a 16 bit int at a given min and max
static inline int16_t clamp16(int16_t val, int16_t min, int16_t max)
{
    if (val < min) return min;
     eea:	26 17       	cp	r18, r22
     eec:	37 07       	cpc	r19, r23
     eee:	34 f0       	brlt	.+12     	; 0xefc <follow_segment_until_break+0x260>
    if (val > max) return max;
     ef0:	a2 17       	cp	r26, r18
     ef2:	b3 07       	cpc	r27, r19
     ef4:	14 f4       	brge	.+4      	; 0xefa <follow_segment_until_break+0x25e>
     ef6:	bd 01       	movw	r22, r26
     ef8:	01 c0       	rjmp	.+2      	; 0xefc <follow_segment_until_break+0x260>
    return val;
     efa:	b9 01       	movw	r22, r18
        int16_t l = (int16_t)cfg.cruiseSpeed + diff;
        int16_t r = (int16_t)cfg.cruiseSpeed - diff;

        l = clamp16(l, cfg.minSpeed, (int16_t)cfg.maxSpeed);
        r = clamp16(r, cfg.minSpeed, (int16_t)cfg.maxSpeed);
        motors_set_speeds(l, r);
     efc:	0e 94 e1 09 	call	0x13c2	; 0x13c2 <motors_set_speeds>
		


        // No line ahead (approaching node / gap / dead end)
        bool center_empty = (sense[1] < TH_NO_LINE &&
     f00:	8b 81       	ldd	r24, Y+3	; 0x03
     f02:	9c 81       	ldd	r25, Y+4	; 0x04
                             sense[2] < TH_NO_LINE &&
     f04:	84 36       	cpi	r24, 0x64	; 100
     f06:	91 05       	cpc	r25, r1
     f08:	60 f4       	brcc	.+24     	; 0xf22 <follow_segment_until_break+0x286>
     f0a:	8d 81       	ldd	r24, Y+5	; 0x05
     f0c:	9e 81       	ldd	r25, Y+6	; 0x06
        motors_set_speeds(l, r);
		


        // No line ahead (approaching node / gap / dead end)
        bool center_empty = (sense[1] < TH_NO_LINE &&
     f0e:	84 36       	cpi	r24, 0x64	; 100
     f10:	91 05       	cpc	r25, r1
     f12:	48 f4       	brcc	.+18     	; 0xf26 <follow_segment_until_break+0x28a>
                             sense[2] < TH_NO_LINE &&
                             sense[3] < TH_NO_LINE);
     f14:	8f 81       	ldd	r24, Y+7	; 0x07
     f16:	98 85       	ldd	r25, Y+8	; 0x08
		


        // No line ahead (approaching node / gap / dead end)
        bool center_empty = (sense[1] < TH_NO_LINE &&
                             sense[2] < TH_NO_LINE &&
     f18:	84 36       	cpi	r24, 0x64	; 100
     f1a:	91 05       	cpc	r25, r1
     f1c:	30 f0       	brcs	.+12     	; 0xf2a <follow_segment_until_break+0x28e>
     f1e:	90 e0       	ldi	r25, 0x00	; 0
     f20:	05 c0       	rjmp	.+10     	; 0xf2c <follow_segment_until_break+0x290>
     f22:	90 e0       	ldi	r25, 0x00	; 0
     f24:	03 c0       	rjmp	.+6      	; 0xf2c <follow_segment_until_break+0x290>
     f26:	90 e0       	ldi	r25, 0x00	; 0
     f28:	01 c0       	rjmp	.+2      	; 0xf2c <follow_segment_until_break+0x290>
     f2a:	91 e0       	ldi	r25, 0x01	; 1
        motors_set_speeds(l, r);
		


        // No line ahead (approaching node / gap / dead end)
        bool center_empty = (sense[1] < TH_NO_LINE &&
     f2c:	89 2f       	mov	r24, r25
     f2e:	81 70       	andi	r24, 0x01	; 1
                             sense[2] < TH_NO_LINE &&
                             sense[3] < TH_NO_LINE);
        if (center_empty) return;
     f30:	89 f4       	brne	.+34     	; 0xf54 <follow_segment_until_break+0x2b8>

        // Branch detected
        if (sense[0] > TH_SIDE_LINE || sense[4] > TH_SIDE_LINE) return;
     f32:	89 81       	ldd	r24, Y+1	; 0x01
     f34:	9a 81       	ldd	r25, Y+2	; 0x02
     f36:	89 3c       	cpi	r24, 0xC9	; 201
     f38:	91 05       	cpc	r25, r1
     f3a:	60 f4       	brcc	.+24     	; 0xf54 <follow_segment_until_break+0x2b8>
     f3c:	89 85       	ldd	r24, Y+9	; 0x09
     f3e:	9a 85       	ldd	r25, Y+10	; 0x0a
     f40:	89 3c       	cpi	r24, 0xC9	; 201
     f42:	91 05       	cpc	r25, r1
     f44:	38 f4       	brcc	.+14     	; 0xf54 <follow_segment_until_break+0x2b8>
     f46:	8f e3       	ldi	r24, 0x3F	; 63
     f48:	9f e1       	ldi	r25, 0x1F	; 31
     f4a:	01 97       	sbiw	r24, 0x01	; 1
     f4c:	f1 f7       	brne	.-4      	; 0xf4a <follow_segment_until_break+0x2ae>
     f4e:	00 c0       	rjmp	.+0      	; 0xf50 <follow_segment_until_break+0x2b4>
     f50:	00 00       	nop
     f52:	c0 ce       	rjmp	.-640    	; 0xcd4 <follow_segment_until_break+0x38>

        _delay_ms(2);
    }
}
     f54:	2e 96       	adiw	r28, 0x0e	; 14
     f56:	0f b6       	in	r0, 0x3f	; 63
     f58:	f8 94       	cli
     f5a:	de bf       	out	0x3e, r29	; 62
     f5c:	0f be       	out	0x3f, r0	; 63
     f5e:	cd bf       	out	0x3d, r28	; 61
     f60:	df 91       	pop	r29
     f62:	cf 91       	pop	r28
     f64:	1f 91       	pop	r17
     f66:	0f 91       	pop	r16
     f68:	ff 90       	pop	r15
     f6a:	ef 90       	pop	r14
     f6c:	df 90       	pop	r13
     f6e:	cf 90       	pop	r12
     f70:	bf 90       	pop	r11
     f72:	af 90       	pop	r10
     f74:	9f 90       	pop	r9
     f76:	8f 90       	pop	r8
     f78:	7f 90       	pop	r7
     f7a:	6f 90       	pop	r6
     f7c:	5f 90       	pop	r5
     f7e:	4f 90       	pop	r4
     f80:	08 95       	ret

00000f82 <handle_node_learn>:
// 5. detect goal or choose turn (left-hand rule)
// 6. rotate and record path + simplify
// Returns true when goal is reached.

static bool handle_node_learn(void)
{
     f82:	ef 92       	push	r14
     f84:	ff 92       	push	r15
     f86:	0f 93       	push	r16
     f88:	1f 93       	push	r17
     f8a:	cf 93       	push	r28
     f8c:	df 93       	push	r29
     f8e:	cd b7       	in	r28, 0x3d	; 61
     f90:	de b7       	in	r29, 0x3e	; 62
     f92:	a2 97       	sbiw	r28, 0x22	; 34
     f94:	0f b6       	in	r0, 0x3f	; 63
     f96:	f8 94       	cli
     f98:	de bf       	out	0x3e, r29	; 62
     f9a:	0f be       	out	0x3f, r0	; 63
     f9c:	cd bf       	out	0x3d, r28	; 61
    char status[24];
    uint16_t s[NUM_SENSORS];


    follow_segment_until_break();
     f9e:	0e 94 4e 06 	call	0xc9c	; 0xc9c <follow_segment_until_break>


    // creep forward to settle at node
    motors_set_speeds(cfg.creepSpeed, cfg.creepSpeed);
     fa2:	05 eb       	ldi	r16, 0xB5	; 181
     fa4:	11 e0       	ldi	r17, 0x01	; 1
     fa6:	f8 01       	movw	r30, r16
     fa8:	86 85       	ldd	r24, Z+14	; 0x0e
     faa:	97 85       	ldd	r25, Z+15	; 0x0f
     fac:	bc 01       	movw	r22, r24
     fae:	0e 94 e1 09 	call	0x13c2	; 0x13c2 <motors_set_speeds>
    wait_ms(cfg.creepTime_ms);
     fb2:	f8 01       	movw	r30, r16
     fb4:	80 89       	ldd	r24, Z+16	; 0x10
     fb6:	91 89       	ldd	r25, Z+17	; 0x11
     fb8:	07 c0       	rjmp	.+14     	; 0xfc8 <handle_node_learn+0x46>
     fba:	8f e9       	ldi	r24, 0x9F	; 159
     fbc:	9f e0       	ldi	r25, 0x0F	; 15
     fbe:	01 97       	sbiw	r24, 0x01	; 1
     fc0:	f1 f7       	brne	.-4      	; 0xfbe <handle_node_learn+0x3c>
     fc2:	00 c0       	rjmp	.+0      	; 0xfc4 <handle_node_learn+0x42>
     fc4:	00 00       	nop


// Time helper for larger ms delays
static inline void wait_ms(uint16_t ms)
{
    while (ms--)
     fc6:	c9 01       	movw	r24, r18
     fc8:	9c 01       	movw	r18, r24
     fca:	21 50       	subi	r18, 0x01	; 1
     fcc:	31 09       	sbc	r19, r1
     fce:	89 2b       	or	r24, r25
     fd0:	a1 f7       	brne	.-24     	; 0xfba <handle_node_learn+0x38>
    bool has_left  = false;
    bool has_right = false;
    bool has_straight = false;

    // Read sensors and check sides
    line_readLineBlack(s, LS_MODE_On);
     fd2:	61 e0       	ldi	r22, 0x01	; 1
     fd4:	ce 01       	movw	r24, r28
     fd6:	49 96       	adiw	r24, 0x19	; 25
     fd8:	0e 94 b4 04 	call	0x968	; 0x968 <line_readLineBlack>
    if (s[0] > TH_SIDE_LINE) has_left  = true;
     fdc:	89 8d       	ldd	r24, Y+25	; 0x19
     fde:	9a 8d       	ldd	r25, Y+26	; 0x1a
     fe0:	89 3c       	cpi	r24, 0xC9	; 201
     fe2:	91 05       	cpc	r25, r1
     fe4:	10 f4       	brcc	.+4      	; 0xfea <handle_node_learn+0x68>

    // creep forward to settle at node
    motors_set_speeds(cfg.creepSpeed, cfg.creepSpeed);
    wait_ms(cfg.creepTime_ms);

    bool has_left  = false;
     fe6:	f1 2c       	mov	r15, r1
     fe8:	02 c0       	rjmp	.+4      	; 0xfee <handle_node_learn+0x6c>
    bool has_right = false;
    bool has_straight = false;

    // Read sensors and check sides
    line_readLineBlack(s, LS_MODE_On);
    if (s[0] > TH_SIDE_LINE) has_left  = true;
     fea:	ff 24       	eor	r15, r15
     fec:	f3 94       	inc	r15
    if (s[4] > TH_SIDE_LINE) has_right = true;
     fee:	89 a1       	ldd	r24, Y+33	; 0x21
     ff0:	9a a1       	ldd	r25, Y+34	; 0x22
     ff2:	89 3c       	cpi	r24, 0xC9	; 201
     ff4:	91 05       	cpc	r25, r1
     ff6:	10 f4       	brcc	.+4      	; 0xffc <handle_node_learn+0x7a>
    // creep forward to settle at node
    motors_set_speeds(cfg.creepSpeed, cfg.creepSpeed);
    wait_ms(cfg.creepTime_ms);

    bool has_left  = false;
    bool has_right = false;
     ff8:	e1 2c       	mov	r14, r1
     ffa:	02 c0       	rjmp	.+4      	; 0x1000 <handle_node_learn+0x7e>
    bool has_straight = false;

    // Read sensors and check sides
    line_readLineBlack(s, LS_MODE_On);
    if (s[0] > TH_SIDE_LINE) has_left  = true;
    if (s[4] > TH_SIDE_LINE) has_right = true;
     ffc:	ee 24       	eor	r14, r14
     ffe:	e3 94       	inc	r14

    // Inch into intersection to decide straight / goal
    motors_set_speeds(cfg.centerSpeed, cfg.centerSpeed);
    1000:	05 eb       	ldi	r16, 0xB5	; 181
    1002:	11 e0       	ldi	r17, 0x01	; 1
    1004:	f8 01       	movw	r30, r16
    1006:	82 89       	ldd	r24, Z+18	; 0x12
    1008:	93 89       	ldd	r25, Z+19	; 0x13
    100a:	bc 01       	movw	r22, r24
    100c:	0e 94 e1 09 	call	0x13c2	; 0x13c2 <motors_set_speeds>
    wait_ms(cfg.centerTime_ms);
    1010:	f8 01       	movw	r30, r16
    1012:	84 89       	ldd	r24, Z+20	; 0x14
    1014:	95 89       	ldd	r25, Z+21	; 0x15
    1016:	07 c0       	rjmp	.+14     	; 0x1026 <handle_node_learn+0xa4>
    1018:	8f e9       	ldi	r24, 0x9F	; 159
    101a:	9f e0       	ldi	r25, 0x0F	; 15
    101c:	01 97       	sbiw	r24, 0x01	; 1
    101e:	f1 f7       	brne	.-4      	; 0x101c <handle_node_learn+0x9a>
    1020:	00 c0       	rjmp	.+0      	; 0x1022 <handle_node_learn+0xa0>
    1022:	00 00       	nop


// Time helper for larger ms delays
static inline void wait_ms(uint16_t ms)
{
    while (ms--)
    1024:	c9 01       	movw	r24, r18
    1026:	9c 01       	movw	r18, r24
    1028:	21 50       	subi	r18, 0x01	; 1
    102a:	31 09       	sbc	r19, r1
    102c:	89 2b       	or	r24, r25
    102e:	a1 f7       	brne	.-24     	; 0x1018 <handle_node_learn+0x96>

    // Inch into intersection to decide straight / goal
    motors_set_speeds(cfg.centerSpeed, cfg.centerSpeed);
    wait_ms(cfg.centerTime_ms);

    line_readLineBlack(s, LS_MODE_On);
    1030:	61 e0       	ldi	r22, 0x01	; 1
    1032:	ce 01       	movw	r24, r28
    1034:	49 96       	adiw	r24, 0x19	; 25
    1036:	0e 94 b4 04 	call	0x968	; 0x968 <line_readLineBlack>
	
	// Decide if straight available
    if (s[1] > TH_STRAIGHT_OK || s[2] > TH_STRAIGHT_OK || s[3] > TH_STRAIGHT_OK)
    103a:	8b 8d       	ldd	r24, Y+27	; 0x1b
    103c:	9c 8d       	ldd	r25, Y+28	; 0x1c
    103e:	8d 32       	cpi	r24, 0x2D	; 45
    1040:	e1 e0       	ldi	r30, 0x01	; 1
    1042:	9e 07       	cpc	r25, r30
    1044:	60 f4       	brcc	.+24     	; 0x105e <handle_node_learn+0xdc>
    1046:	2d 8d       	ldd	r18, Y+29	; 0x1d
    1048:	3e 8d       	ldd	r19, Y+30	; 0x1e
    104a:	2d 32       	cpi	r18, 0x2D	; 45
    104c:	31 40       	sbci	r19, 0x01	; 1
    104e:	48 f4       	brcc	.+18     	; 0x1062 <handle_node_learn+0xe0>
    1050:	2f 8d       	ldd	r18, Y+31	; 0x1f
    1052:	38 a1       	ldd	r19, Y+32	; 0x20
    1054:	2d 32       	cpi	r18, 0x2D	; 45
    1056:	31 40       	sbci	r19, 0x01	; 1
    1058:	30 f4       	brcc	.+12     	; 0x1066 <handle_node_learn+0xe4>
    motors_set_speeds(cfg.creepSpeed, cfg.creepSpeed);
    wait_ms(cfg.creepTime_ms);

    bool has_left  = false;
    bool has_right = false;
    bool has_straight = false;
    105a:	60 e0       	ldi	r22, 0x00	; 0
    105c:	05 c0       	rjmp	.+10     	; 0x1068 <handle_node_learn+0xe6>

    line_readLineBlack(s, LS_MODE_On);
	
	// Decide if straight available
    if (s[1] > TH_STRAIGHT_OK || s[2] > TH_STRAIGHT_OK || s[3] > TH_STRAIGHT_OK)
        has_straight = true;
    105e:	61 e0       	ldi	r22, 0x01	; 1
    1060:	03 c0       	rjmp	.+6      	; 0x1068 <handle_node_learn+0xe6>
    1062:	61 e0       	ldi	r22, 0x01	; 1
    1064:	01 c0       	rjmp	.+2      	; 0x1068 <handle_node_learn+0xe6>
    1066:	61 e0       	ldi	r22, 0x01	; 1

    // Goal check: All sensors high
    if (s[0]>TH_STRAIGHT_OK && s[1]>TH_STRAIGHT_OK && s[2]>TH_STRAIGHT_OK && s[3]>TH_STRAIGHT_OK && s[4]>TH_STRAIGHT_OK)
    1068:	29 8d       	ldd	r18, Y+25	; 0x19
    106a:	3a 8d       	ldd	r19, Y+26	; 0x1a
    106c:	2d 32       	cpi	r18, 0x2D	; 45
    106e:	31 40       	sbci	r19, 0x01	; 1
    1070:	78 f1       	brcs	.+94     	; 0x10d0 <handle_node_learn+0x14e>
    1072:	8d 32       	cpi	r24, 0x2D	; 45
    1074:	91 40       	sbci	r25, 0x01	; 1
    1076:	60 f1       	brcs	.+88     	; 0x10d0 <handle_node_learn+0x14e>
    1078:	8d 8d       	ldd	r24, Y+29	; 0x1d
    107a:	9e 8d       	ldd	r25, Y+30	; 0x1e
    107c:	8d 32       	cpi	r24, 0x2D	; 45
    107e:	91 40       	sbci	r25, 0x01	; 1
    1080:	38 f1       	brcs	.+78     	; 0x10d0 <handle_node_learn+0x14e>
    1082:	8f 8d       	ldd	r24, Y+31	; 0x1f
    1084:	98 a1       	ldd	r25, Y+32	; 0x20
    1086:	8d 32       	cpi	r24, 0x2D	; 45
    1088:	91 40       	sbci	r25, 0x01	; 1
    108a:	10 f1       	brcs	.+68     	; 0x10d0 <handle_node_learn+0x14e>
    108c:	89 a1       	ldd	r24, Y+33	; 0x21
    108e:	9a a1       	ldd	r25, Y+34	; 0x22
    1090:	8d 32       	cpi	r24, 0x2D	; 45
    1092:	91 40       	sbci	r25, 0x01	; 1
    1094:	e8 f0       	brcs	.+58     	; 0x10d0 <handle_node_learn+0x14e>
    {

	    motors_set_speeds(0, 0);
    1096:	60 e0       	ldi	r22, 0x00	; 0
    1098:	70 e0       	ldi	r23, 0x00	; 0
    109a:	80 e0       	ldi	r24, 0x00	; 0
    109c:	90 e0       	ldi	r25, 0x00	; 0
    109e:	0e 94 e1 09 	call	0x13c2	; 0x13c2 <motors_set_speeds>
	    oled_clearPage(0);
    10a2:	80 e0       	ldi	r24, 0x00	; 0
    10a4:	0e 94 77 05 	call	0xaee	; 0xaee <oled_clearPage>
	    oled_clearPage(1);
    10a8:	81 e0       	ldi	r24, 0x01	; 1
    10aa:	0e 94 77 05 	call	0xaee	; 0xaee <oled_clearPage>
	    oled_putStringAt(0, 0, "Goal Reached");
    10ae:	4c e1       	ldi	r20, 0x1C	; 28
    10b0:	51 e0       	ldi	r21, 0x01	; 1
    10b2:	60 e0       	ldi	r22, 0x00	; 0
    10b4:	80 e0       	ldi	r24, 0x00	; 0
    10b6:	0e 94 c0 05 	call	0xb80	; 0xb80 <oled_putStringAt>
    10ba:	ff ef       	ldi	r31, 0xFF	; 255
    10bc:	2f e4       	ldi	r18, 0x4F	; 79
    10be:	43 ec       	ldi	r20, 0xC3	; 195
    10c0:	f1 50       	subi	r31, 0x01	; 1
    10c2:	20 40       	sbci	r18, 0x00	; 0
    10c4:	40 40       	sbci	r20, 0x00	; 0
    10c6:	e1 f7       	brne	.-8      	; 0x10c0 <handle_node_learn+0x13e>
    10c8:	00 c0       	rjmp	.+0      	; 0x10ca <handle_node_learn+0x148>
    10ca:	00 00       	nop
	    _delay_ms(4000);
	    return true;
    10cc:	81 e0       	ldi	r24, 0x01	; 1
    10ce:	2c c0       	rjmp	.+88     	; 0x1128 <handle_node_learn+0x1a6>
	    
	    
    }

    // Decide which direction to turn next
    char t = choose_turn(has_left, has_straight, has_right);
    10d0:	4e 2d       	mov	r20, r14
    10d2:	8f 2d       	mov	r24, r15
    10d4:	0e 94 69 05 	call	0xad2	; 0xad2 <choose_turn>
    10d8:	18 2f       	mov	r17, r24

    rotate_robot(t);
    10da:	0e 94 e4 05 	call	0xbc8	; 0xbc8 <rotate_robot>

    path_add(t);
    10de:	81 2f       	mov	r24, r17
    10e0:	0e 94 fc 04 	call	0x9f8	; 0x9f8 <path_add>
    path_simplify();
    10e4:	0e 94 0e 05 	call	0xa1c	; 0xa1c <path_simplify>

    oled_clearPage(1);
    10e8:	81 e0       	ldi	r24, 0x01	; 1
    10ea:	0e 94 77 05 	call	0xaee	; 0xaee <oled_clearPage>
    snprintf(status, sizeof(status), "Path: %s", path);
    10ee:	8f e8       	ldi	r24, 0x8F	; 143
    10f0:	91 e0       	ldi	r25, 0x01	; 1
    10f2:	9f 93       	push	r25
    10f4:	8f 93       	push	r24
    10f6:	89 e2       	ldi	r24, 0x29	; 41
    10f8:	91 e0       	ldi	r25, 0x01	; 1
    10fa:	9f 93       	push	r25
    10fc:	8f 93       	push	r24
    10fe:	1f 92       	push	r1
    1100:	88 e1       	ldi	r24, 0x18	; 24
    1102:	8f 93       	push	r24
    1104:	8e 01       	movw	r16, r28
    1106:	0f 5f       	subi	r16, 0xFF	; 255
    1108:	1f 4f       	sbci	r17, 0xFF	; 255
    110a:	1f 93       	push	r17
    110c:	0f 93       	push	r16
    110e:	0e 94 8d 0b 	call	0x171a	; 0x171a <snprintf>
    oled_putStringAt(1, 0, status);
    1112:	a8 01       	movw	r20, r16
    1114:	60 e0       	ldi	r22, 0x00	; 0
    1116:	81 e0       	ldi	r24, 0x01	; 1
    1118:	0e 94 c0 05 	call	0xb80	; 0xb80 <oled_putStringAt>
	//    _delay_ms(4000);
	//    return true;
    //}


    return false;
    111c:	0f b6       	in	r0, 0x3f	; 63
    111e:	f8 94       	cli
    1120:	de bf       	out	0x3e, r29	; 62
    1122:	0f be       	out	0x3f, r0	; 63
    1124:	cd bf       	out	0x3d, r28	; 61
    1126:	80 e0       	ldi	r24, 0x00	; 0
}
    1128:	a2 96       	adiw	r28, 0x22	; 34
    112a:	0f b6       	in	r0, 0x3f	; 63
    112c:	f8 94       	cli
    112e:	de bf       	out	0x3e, r29	; 62
    1130:	0f be       	out	0x3f, r0	; 63
    1132:	cd bf       	out	0x3d, r28	; 61
    1134:	df 91       	pop	r29
    1136:	cf 91       	pop	r28
    1138:	1f 91       	pop	r17
    113a:	0f 91       	pop	r16
    113c:	ff 90       	pop	r15
    113e:	ef 90       	pop	r14
    1140:	08 95       	ret

00001142 <learn_maze>:

// Learn maze by following left hand rule and simplifying path until goal is reached

static void learn_maze(void)
{
    oled_clearPage(0);
    1142:	80 e0       	ldi	r24, 0x00	; 0
    1144:	0e 94 77 05 	call	0xaee	; 0xaee <oled_clearPage>
    oled_clearPage(1);
    1148:	81 e0       	ldi	r24, 0x01	; 1
    114a:	0e 94 77 05 	call	0xaee	; 0xaee <oled_clearPage>
    oled_putStringAt(0, 0, "Learning...");
    114e:	42 e3       	ldi	r20, 0x32	; 50
    1150:	51 e0       	ldi	r21, 0x01	; 1
    1152:	60 e0       	ldi	r22, 0x00	; 0
    1154:	80 e0       	ldi	r24, 0x00	; 0
    1156:	0e 94 c0 05 	call	0xb80	; 0xb80 <oled_putStringAt>
    path_clear();
    115a:	0e 94 f7 04 	call	0x9ee	; 0x9ee <path_clear>

    while (!handle_node_learn())
    115e:	0e 94 c1 07 	call	0xf82	; 0xf82 <handle_node_learn>
    1162:	88 23       	and	r24, r24
    1164:	e1 f3       	breq	.-8      	; 0x115e <learn_maze+0x1c>
    {
        // Keep exploring until goal is found (true gets returned)
    }
}
    1166:	08 95       	ret

00001168 <rerun_maze>:

static void rerun_maze(void)
{
    1168:	ef 92       	push	r14
    116a:	ff 92       	push	r15
    116c:	1f 93       	push	r17
    116e:	cf 93       	push	r28
    1170:	df 93       	push	r29
    1172:	cd b7       	in	r28, 0x3d	; 61
    1174:	de b7       	in	r29, 0x3e	; 62
    1176:	68 97       	sbiw	r28, 0x18	; 24
    1178:	0f b6       	in	r0, 0x3f	; 63
    117a:	f8 94       	cli
    117c:	de bf       	out	0x3e, r29	; 62
    117e:	0f be       	out	0x3f, r0	; 63
    1180:	cd bf       	out	0x3d, r28	; 61
    char msg[24];
	
	
	// Reset robot
	oled_clearPage(0);
    1182:	80 e0       	ldi	r24, 0x00	; 0
    1184:	0e 94 77 05 	call	0xaee	; 0xaee <oled_clearPage>
	oled_clearPage(1);
    1188:	81 e0       	ldi	r24, 0x01	; 1
    118a:	0e 94 77 05 	call	0xaee	; 0xaee <oled_clearPage>
	oled_putStringAt(0, 0, "Reset to start");
    118e:	4e e3       	ldi	r20, 0x3E	; 62
    1190:	51 e0       	ldi	r21, 0x01	; 1
    1192:	60 e0       	ldi	r22, 0x00	; 0
    1194:	80 e0       	ldi	r24, 0x00	; 0
    1196:	0e 94 c0 05 	call	0xb80	; 0xb80 <oled_putStringAt>
	oled_putStringAt(1, 0, path);
    119a:	4f e8       	ldi	r20, 0x8F	; 143
    119c:	51 e0       	ldi	r21, 0x01	; 1
    119e:	60 e0       	ldi	r22, 0x00	; 0
    11a0:	81 e0       	ldi	r24, 0x01	; 1
    11a2:	0e 94 c0 05 	call	0xb80	; 0xb80 <oled_putStringAt>
    11a6:	2a ea       	ldi	r18, 0xAA	; 170
    11a8:	34 ed       	ldi	r19, 0xD4	; 212
    11aa:	8c e1       	ldi	r24, 0x1C	; 28
    11ac:	91 e0       	ldi	r25, 0x01	; 1
    11ae:	21 50       	subi	r18, 0x01	; 1
    11b0:	30 40       	sbci	r19, 0x00	; 0
    11b2:	80 40       	sbci	r24, 0x00	; 0
    11b4:	90 40       	sbci	r25, 0x00	; 0
    11b6:	d9 f7       	brne	.-10     	; 0x11ae <rerun_maze+0x46>
    11b8:	00 00       	nop

	_delay_ms(7000);

        // Replay stored path
        oled_clearPage(0);
    11ba:	80 e0       	ldi	r24, 0x00	; 0
    11bc:	0e 94 77 05 	call	0xaee	; 0xaee <oled_clearPage>
        oled_clearPage(1);
    11c0:	81 e0       	ldi	r24, 0x01	; 1
    11c2:	0e 94 77 05 	call	0xaee	; 0xaee <oled_clearPage>
        oled_putStringAt(0, 0, "Replaying...");
    11c6:	4d e4       	ldi	r20, 0x4D	; 77
    11c8:	51 e0       	ldi	r21, 0x01	; 1
    11ca:	60 e0       	ldi	r22, 0x00	; 0
    11cc:	80 e0       	ldi	r24, 0x00	; 0
    11ce:	0e 94 c0 05 	call	0xb80	; 0xb80 <oled_putStringAt>
        oled_putStringAt(1, 0, path);
    11d2:	4f e8       	ldi	r20, 0x8F	; 143
    11d4:	51 e0       	ldi	r21, 0x01	; 1
    11d6:	60 e0       	ldi	r22, 0x00	; 0
    11d8:	81 e0       	ldi	r24, 0x01	; 1
    11da:	0e 94 c0 05 	call	0xb80	; 0xb80 <oled_putStringAt>

        for (uint8_t i = 0; i < pathLen; i++)
    11de:	10 e0       	ldi	r17, 0x00	; 0
    11e0:	42 c0       	rjmp	.+132    	; 0x1266 <rerun_maze+0xfe>
        {
            follow_segment_until_break();
    11e2:	0e 94 4e 06 	call	0xc9c	; 0xc9c <follow_segment_until_break>

            // Soft braking before turning
            motors_set_speeds(cfg.brake1Speed, cfg.brake1Speed);
    11e6:	0f 2e       	mov	r0, r31
    11e8:	f5 eb       	ldi	r31, 0xB5	; 181
    11ea:	ef 2e       	mov	r14, r31
    11ec:	f1 e0       	ldi	r31, 0x01	; 1
    11ee:	ff 2e       	mov	r15, r31
    11f0:	f0 2d       	mov	r31, r0
    11f2:	f7 01       	movw	r30, r14
    11f4:	82 8d       	ldd	r24, Z+26	; 0x1a
    11f6:	93 8d       	ldd	r25, Z+27	; 0x1b
    11f8:	bc 01       	movw	r22, r24
    11fa:	0e 94 e1 09 	call	0x13c2	; 0x13c2 <motors_set_speeds>
            wait_ms(cfg.brake1Time_ms);
    11fe:	f7 01       	movw	r30, r14
    1200:	84 8d       	ldd	r24, Z+28	; 0x1c
    1202:	95 8d       	ldd	r25, Z+29	; 0x1d
    1204:	07 c0       	rjmp	.+14     	; 0x1214 <rerun_maze+0xac>
    1206:	8f e9       	ldi	r24, 0x9F	; 159
    1208:	9f e0       	ldi	r25, 0x0F	; 15
    120a:	01 97       	sbiw	r24, 0x01	; 1
    120c:	f1 f7       	brne	.-4      	; 0x120a <rerun_maze+0xa2>
    120e:	00 c0       	rjmp	.+0      	; 0x1210 <rerun_maze+0xa8>
    1210:	00 00       	nop


// Time helper for larger ms delays
static inline void wait_ms(uint16_t ms)
{
    while (ms--)
    1212:	c9 01       	movw	r24, r18
    1214:	9c 01       	movw	r18, r24
    1216:	21 50       	subi	r18, 0x01	; 1
    1218:	31 09       	sbc	r19, r1
    121a:	89 2b       	or	r24, r25
    121c:	a1 f7       	brne	.-24     	; 0x1206 <rerun_maze+0x9e>
            follow_segment_until_break();

            // Soft braking before turning
            motors_set_speeds(cfg.brake1Speed, cfg.brake1Speed);
            wait_ms(cfg.brake1Time_ms);
            motors_set_speeds(cfg.brake2Speed, cfg.brake2Speed);
    121e:	0f 2e       	mov	r0, r31
    1220:	f5 eb       	ldi	r31, 0xB5	; 181
    1222:	ef 2e       	mov	r14, r31
    1224:	f1 e0       	ldi	r31, 0x01	; 1
    1226:	ff 2e       	mov	r15, r31
    1228:	f0 2d       	mov	r31, r0
    122a:	f7 01       	movw	r30, r14
    122c:	86 8d       	ldd	r24, Z+30	; 0x1e
    122e:	97 8d       	ldd	r25, Z+31	; 0x1f
    1230:	bc 01       	movw	r22, r24
    1232:	0e 94 e1 09 	call	0x13c2	; 0x13c2 <motors_set_speeds>
            wait_ms(cfg.brake2Time_ms);
    1236:	f7 01       	movw	r30, r14
    1238:	80 a1       	ldd	r24, Z+32	; 0x20
    123a:	91 a1       	ldd	r25, Z+33	; 0x21
    123c:	07 c0       	rjmp	.+14     	; 0x124c <rerun_maze+0xe4>
    123e:	8f e9       	ldi	r24, 0x9F	; 159
    1240:	9f e0       	ldi	r25, 0x0F	; 15
    1242:	01 97       	sbiw	r24, 0x01	; 1
    1244:	f1 f7       	brne	.-4      	; 0x1242 <rerun_maze+0xda>
    1246:	00 c0       	rjmp	.+0      	; 0x1248 <rerun_maze+0xe0>
    1248:	00 00       	nop


// Time helper for larger ms delays
static inline void wait_ms(uint16_t ms)
{
    while (ms--)
    124a:	c9 01       	movw	r24, r18
    124c:	9c 01       	movw	r18, r24
    124e:	21 50       	subi	r18, 0x01	; 1
    1250:	31 09       	sbc	r19, r1
    1252:	89 2b       	or	r24, r25
    1254:	a1 f7       	brne	.-24     	; 0x123e <rerun_maze+0xd6>
            motors_set_speeds(cfg.brake1Speed, cfg.brake1Speed);
            wait_ms(cfg.brake1Time_ms);
            motors_set_speeds(cfg.brake2Speed, cfg.brake2Speed);
            wait_ms(cfg.brake2Time_ms);

            rotate_robot(path[i]);
    1256:	e1 2f       	mov	r30, r17
    1258:	f0 e0       	ldi	r31, 0x00	; 0
    125a:	e1 57       	subi	r30, 0x71	; 113
    125c:	fe 4f       	sbci	r31, 0xFE	; 254
    125e:	80 81       	ld	r24, Z
    1260:	0e 94 e4 05 	call	0xbc8	; 0xbc8 <rotate_robot>
        oled_clearPage(0);
        oled_clearPage(1);
        oled_putStringAt(0, 0, "Replaying...");
        oled_putStringAt(1, 0, path);

        for (uint8_t i = 0; i < pathLen; i++)
    1264:	1f 5f       	subi	r17, 0xFF	; 255
    1266:	80 91 8e 01 	lds	r24, 0x018E	; 0x80018e <pathLen>
    126a:	18 17       	cp	r17, r24
    126c:	08 f4       	brcc	.+2      	; 0x1270 <rerun_maze+0x108>
    126e:	b9 cf       	rjmp	.-142    	; 0x11e2 <rerun_maze+0x7a>

            rotate_robot(path[i]);
        }

        // Final segment into goal
        follow_segment_until_break();
    1270:	0e 94 4e 06 	call	0xc9c	; 0xc9c <follow_segment_until_break>
        motors_set_speeds(0, 0);
    1274:	60 e0       	ldi	r22, 0x00	; 0
    1276:	70 e0       	ldi	r23, 0x00	; 0
    1278:	80 e0       	ldi	r24, 0x00	; 0
    127a:	90 e0       	ldi	r25, 0x00	; 0
    127c:	0e 94 e1 09 	call	0x13c2	; 0x13c2 <motors_set_speeds>

        oled_clearPage(0);
    1280:	80 e0       	ldi	r24, 0x00	; 0
    1282:	0e 94 77 05 	call	0xaee	; 0xaee <oled_clearPage>
        oled_clearPage(1);
    1286:	81 e0       	ldi	r24, 0x01	; 1
    1288:	0e 94 77 05 	call	0xaee	; 0xaee <oled_clearPage>
        snprintf(msg, sizeof(msg), "Done!");
    128c:	86 e0       	ldi	r24, 0x06	; 6
    128e:	ea e5       	ldi	r30, 0x5A	; 90
    1290:	f1 e0       	ldi	r31, 0x01	; 1
    1292:	de 01       	movw	r26, r28
    1294:	11 96       	adiw	r26, 0x01	; 1
    1296:	01 90       	ld	r0, Z+
    1298:	0d 92       	st	X+, r0
    129a:	8a 95       	dec	r24
    129c:	e1 f7       	brne	.-8      	; 0x1296 <rerun_maze+0x12e>
        oled_putStringAt(0, 0, msg);
    129e:	ae 01       	movw	r20, r28
    12a0:	4f 5f       	subi	r20, 0xFF	; 255
    12a2:	5f 4f       	sbci	r21, 0xFF	; 255
    12a4:	60 e0       	ldi	r22, 0x00	; 0
    12a6:	80 e0       	ldi	r24, 0x00	; 0
    12a8:	0e 94 c0 05 	call	0xb80	; 0xb80 <oled_putStringAt>
}
    12ac:	68 96       	adiw	r28, 0x18	; 24
    12ae:	0f b6       	in	r0, 0x3f	; 63
    12b0:	f8 94       	cli
    12b2:	de bf       	out	0x3e, r29	; 62
    12b4:	0f be       	out	0x3f, r0	; 63
    12b6:	cd bf       	out	0x3d, r28	; 61
    12b8:	df 91       	pop	r29
    12ba:	cf 91       	pop	r28
    12bc:	1f 91       	pop	r17
    12be:	ff 90       	pop	r15
    12c0:	ef 90       	pop	r14
    12c2:	08 95       	ret

000012c4 <main>:

// Main progran control, runs initalization, solve and rerun
int main(void)
{
    // Initialize hardware, motors, OLED, etc.
    line_sensors_init();
    12c4:	0e 94 7a 02 	call	0x4f4	; 0x4f4 <line_sensors_init>
    motors_init(400);       // Timer1, TOP=400
    12c8:	80 e9       	ldi	r24, 0x90	; 144
    12ca:	91 e0       	ldi	r25, 0x01	; 1
    12cc:	0e 94 b9 09 	call	0x1372	; 0x1372 <motors_init>
    load_default_config();
    12d0:	0e 94 b8 04 	call	0x970	; 0x970 <load_default_config>
    oled_startup();
    12d4:	0e 94 cf 05 	call	0xb9e	; 0xb9e <oled_startup>
    12d8:	2f ef       	ldi	r18, 0xFF	; 255
    12da:	85 ea       	ldi	r24, 0xA5	; 165
    12dc:	9e e0       	ldi	r25, 0x0E	; 14
    12de:	21 50       	subi	r18, 0x01	; 1
    12e0:	80 40       	sbci	r24, 0x00	; 0
    12e2:	90 40       	sbci	r25, 0x00	; 0
    12e4:	e1 f7       	brne	.-8      	; 0x12de <main+0x1a>
    12e6:	00 c0       	rjmp	.+0      	; 0x12e8 <main+0x24>
    12e8:	00 00       	nop
    _delay_ms(300);

    // Calibrate line sensors
    line_calibrate_reset();
    12ea:	0e 94 50 02 	call	0x4a0	; 0x4a0 <line_calibrate_reset>
    for (uint16_t i = 0; i < 80; i++)
    12ee:	c0 e0       	ldi	r28, 0x00	; 0
    12f0:	d0 e0       	ldi	r29, 0x00	; 0
    12f2:	31 c0       	rjmp	.+98     	; 0x1356 <main+0x92>
    {
        if ((i % 8) == 0)
    12f4:	ce 01       	movw	r24, r28
    12f6:	87 70       	andi	r24, 0x07	; 7
    12f8:	99 27       	eor	r25, r25
    12fa:	89 2b       	or	r24, r25
    12fc:	49 f4       	brne	.+18     	; 0x1310 <main+0x4c>
        {
            oled_clearPage(1);
    12fe:	81 e0       	ldi	r24, 0x01	; 1
    1300:	0e 94 77 05 	call	0xaee	; 0xaee <oled_clearPage>
            oled_putStringAt(1, 0, "Calibrating");
    1304:	40 e1       	ldi	r20, 0x10	; 16
    1306:	51 e0       	ldi	r21, 0x01	; 1
    1308:	60 e0       	ldi	r22, 0x00	; 0
    130a:	81 e0       	ldi	r24, 0x01	; 1
    130c:	0e 94 c0 05 	call	0xb80	; 0xb80 <oled_putStringAt>
        }

        if (i > 20 && i <= 60)
    1310:	ce 01       	movw	r24, r28
    1312:	45 97       	sbiw	r24, 0x15	; 21
    1314:	88 97       	sbiw	r24, 0x28	; 40
    1316:	58 f4       	brcc	.+22     	; 0x132e <main+0x6a>
            motors_set_speeds(-(int16_t)cfg.calibSpeed, (int16_t)cfg.calibSpeed);
    1318:	80 91 bb 01 	lds	r24, 0x01BB	; 0x8001bb <cfg+0x6>
    131c:	90 91 bc 01 	lds	r25, 0x01BC	; 0x8001bc <cfg+0x7>
    1320:	bc 01       	movw	r22, r24
    1322:	91 95       	neg	r25
    1324:	81 95       	neg	r24
    1326:	91 09       	sbc	r25, r1
    1328:	0e 94 e1 09 	call	0x13c2	; 0x13c2 <motors_set_speeds>
    132c:	0a c0       	rjmp	.+20     	; 0x1342 <main+0x7e>
        else
            motors_set_speeds((int16_t)cfg.calibSpeed, -(int16_t)cfg.calibSpeed);
    132e:	80 91 bb 01 	lds	r24, 0x01BB	; 0x8001bb <cfg+0x6>
    1332:	90 91 bc 01 	lds	r25, 0x01BC	; 0x8001bc <cfg+0x7>
    1336:	66 27       	eor	r22, r22
    1338:	77 27       	eor	r23, r23
    133a:	68 1b       	sub	r22, r24
    133c:	79 0b       	sbc	r23, r25
    133e:	0e 94 e1 09 	call	0x13c2	; 0x13c2 <motors_set_speeds>

        line_calibrate(LS_MODE_On);
    1342:	81 e0       	ldi	r24, 0x01	; 1
    1344:	0e 94 cf 02 	call	0x59e	; 0x59e <line_calibrate>
    1348:	8f e3       	ldi	r24, 0x3F	; 63
    134a:	9c e9       	ldi	r25, 0x9C	; 156
    134c:	01 97       	sbiw	r24, 0x01	; 1
    134e:	f1 f7       	brne	.-4      	; 0x134c <main+0x88>
    1350:	00 c0       	rjmp	.+0      	; 0x1352 <main+0x8e>
    1352:	00 00       	nop
    oled_startup();
    _delay_ms(300);

    // Calibrate line sensors
    line_calibrate_reset();
    for (uint16_t i = 0; i < 80; i++)
    1354:	21 96       	adiw	r28, 0x01	; 1
    1356:	c0 35       	cpi	r28, 0x50	; 80
    1358:	d1 05       	cpc	r29, r1
    135a:	60 f2       	brcs	.-104    	; 0x12f4 <main+0x30>
        line_calibrate(LS_MODE_On);
        _delay_ms(10);
    }
	
	// End of calibration
    motors_set_speeds(0, 0);
    135c:	60 e0       	ldi	r22, 0x00	; 0
    135e:	70 e0       	ldi	r23, 0x00	; 0
    1360:	80 e0       	ldi	r24, 0x00	; 0
    1362:	90 e0       	ldi	r25, 0x00	; 0
    1364:	0e 94 e1 09 	call	0x13c2	; 0x13c2 <motors_set_speeds>

    // Learn the maze and store the simplified path
    learn_maze();
    1368:	0e 94 a1 08 	call	0x1142	; 0x1142 <learn_maze>
	
	// Place robot back at beginning and rerun
    rerun_maze();
    136c:	0e 94 b4 08 	call	0x1168	; 0x1168 <rerun_maze>
    1370:	ff cf       	rjmp	.-2      	; 0x1370 <main+0xac>

00001372 <motors_init>:
}

uint16_t motors_get_top(void) { return gTOP; }

void motors_flipLeft(bool flip)  { flipL = flip ? 1 : 0; }
void motors_flipRight(bool flip) { flipR = flip ? 1 : 0; }
    1372:	00 97       	sbiw	r24, 0x00	; 0
    1374:	19 f4       	brne	.+6      	; 0x137c <motors_init+0xa>
    1376:	20 e9       	ldi	r18, 0x90	; 144
    1378:	81 e0       	ldi	r24, 0x01	; 1
    137a:	02 c0       	rjmp	.+4      	; 0x1380 <motors_init+0xe>
    137c:	28 2f       	mov	r18, r24
    137e:	89 2f       	mov	r24, r25
    1380:	20 93 02 01 	sts	0x0102, r18	; 0x800102 <gTOP>
    1384:	80 93 03 01 	sts	0x0103, r24	; 0x800103 <gTOP+0x1>
    1388:	84 b1       	in	r24, 0x04	; 4
    138a:	86 66       	ori	r24, 0x66	; 102
    138c:	84 b9       	out	0x04, r24	; 4
    138e:	85 b1       	in	r24, 0x05	; 5
    1390:	89 7f       	andi	r24, 0xF9	; 249
    1392:	85 b9       	out	0x05, r24	; 5
    1394:	80 ea       	ldi	r24, 0xA0	; 160
    1396:	80 93 80 00 	sts	0x0080, r24	; 0x800080 <__TEXT_REGION_LENGTH__+0x7f8080>
    139a:	81 e1       	ldi	r24, 0x11	; 17
    139c:	80 93 81 00 	sts	0x0081, r24	; 0x800081 <__TEXT_REGION_LENGTH__+0x7f8081>
    13a0:	80 91 02 01 	lds	r24, 0x0102	; 0x800102 <gTOP>
    13a4:	90 91 03 01 	lds	r25, 0x0103	; 0x800103 <gTOP+0x1>
    13a8:	90 93 87 00 	sts	0x0087, r25	; 0x800087 <__TEXT_REGION_LENGTH__+0x7f8087>
    13ac:	80 93 86 00 	sts	0x0086, r24	; 0x800086 <__TEXT_REGION_LENGTH__+0x7f8086>
    13b0:	10 92 89 00 	sts	0x0089, r1	; 0x800089 <__TEXT_REGION_LENGTH__+0x7f8089>
    13b4:	10 92 88 00 	sts	0x0088, r1	; 0x800088 <__TEXT_REGION_LENGTH__+0x7f8088>
    13b8:	10 92 8b 00 	sts	0x008B, r1	; 0x80008b <__TEXT_REGION_LENGTH__+0x7f808b>
    13bc:	10 92 8a 00 	sts	0x008A, r1	; 0x80008a <__TEXT_REGION_LENGTH__+0x7f808a>
    13c0:	08 95       	ret

000013c2 <motors_set_speeds>:
}

void motors_set_speeds(int16_t left, int16_t right)
{
	// Left -> OCR1B, Right -> OCR1A (matches Pololu)
	set_one(left,  LEFT_DIR,  &OCR1B, flipL);
    13c2:	f0 91 d8 01 	lds	r31, 0x01D8	; 0x8001d8 <flipL>

static inline void set_one(int16_t spd, uint8_t dir_bit, volatile uint16_t *ocr, uint8_t flip)
{
	uint8_t reverse = 0;

	if (spd < 0) { spd = -spd; reverse = 1; }
    13c6:	99 23       	and	r25, r25
    13c8:	2c f4       	brge	.+10     	; 0x13d4 <motors_set_speeds+0x12>
    13ca:	91 95       	neg	r25
    13cc:	81 95       	neg	r24
    13ce:	91 09       	sbc	r25, r1
    13d0:	e1 e0       	ldi	r30, 0x01	; 1
    13d2:	01 c0       	rjmp	.+2      	; 0x13d6 <motors_set_speeds+0x14>
void motors_flipLeft(bool flip)  { flipL = flip ? 1 : 0; }
void motors_flipRight(bool flip) { flipR = flip ? 1 : 0; }

static inline void set_one(int16_t spd, uint8_t dir_bit, volatile uint16_t *ocr, uint8_t flip)
{
	uint8_t reverse = 0;
    13d4:	e0 e0       	ldi	r30, 0x00	; 0

	if (spd < 0) { spd = -spd; reverse = 1; }
	if (spd > (int16_t)gTOP) spd = (int16_t)gTOP;
    13d6:	20 91 02 01 	lds	r18, 0x0102	; 0x800102 <gTOP>
    13da:	30 91 03 01 	lds	r19, 0x0103	; 0x800103 <gTOP+0x1>
    13de:	a9 01       	movw	r20, r18
    13e0:	28 17       	cp	r18, r24
    13e2:	39 07       	cpc	r19, r25
    13e4:	0c f0       	brlt	.+2      	; 0x13e8 <motors_set_speeds+0x26>
    13e6:	ac 01       	movw	r20, r24
#define LEFT_PWM  PB6   // OC1B

static uint8_t  flipL = 0, flipR = 0;
static uint16_t gTOP  = 400;

static inline uint16_t clampu(uint16_t x, uint16_t hi) { return x > hi ? hi : x; }
    13e8:	42 17       	cp	r20, r18
    13ea:	53 07       	cpc	r21, r19
    13ec:	08 f4       	brcc	.+2      	; 0x13f0 <motors_set_speeds+0x2e>
    13ee:	9a 01       	movw	r18, r20
	uint8_t reverse = 0;

	if (spd < 0) { spd = -spd; reverse = 1; }
	if (spd > (int16_t)gTOP) spd = (int16_t)gTOP;

	*ocr = clampu((uint16_t)spd, gTOP);
    13f0:	30 93 8b 00 	sts	0x008B, r19	; 0x80008b <__TEXT_REGION_LENGTH__+0x7f808b>
    13f4:	20 93 8a 00 	sts	0x008A, r18	; 0x80008a <__TEXT_REGION_LENGTH__+0x7f808a>

	// reverse ^ flip -> DIR high
	if (reverse ^ flip) PORTB |=  _BV(dir_bit);
    13f8:	fe 17       	cp	r31, r30
    13fa:	21 f0       	breq	.+8      	; 0x1404 <motors_set_speeds+0x42>
    13fc:	85 b1       	in	r24, 0x05	; 5
    13fe:	84 60       	ori	r24, 0x04	; 4
    1400:	85 b9       	out	0x05, r24	; 5
    1402:	03 c0       	rjmp	.+6      	; 0x140a <motors_set_speeds+0x48>
	else                PORTB &= ~_BV(dir_bit);
    1404:	85 b1       	in	r24, 0x05	; 5
    1406:	8b 7f       	andi	r24, 0xFB	; 251
    1408:	85 b9       	out	0x05, r24	; 5

void motors_set_speeds(int16_t left, int16_t right)
{
	// Left -> OCR1B, Right -> OCR1A (matches Pololu)
	set_one(left,  LEFT_DIR,  &OCR1B, flipL);
	set_one(right, RIGHT_DIR, &OCR1A, flipR);
    140a:	50 91 d7 01 	lds	r21, 0x01D7	; 0x8001d7 <flipR>

static inline void set_one(int16_t spd, uint8_t dir_bit, volatile uint16_t *ocr, uint8_t flip)
{
	uint8_t reverse = 0;

	if (spd < 0) { spd = -spd; reverse = 1; }
    140e:	77 23       	and	r23, r23
    1410:	2c f4       	brge	.+10     	; 0x141c <motors_set_speeds+0x5a>
    1412:	71 95       	neg	r23
    1414:	61 95       	neg	r22
    1416:	71 09       	sbc	r23, r1
    1418:	41 e0       	ldi	r20, 0x01	; 1
    141a:	01 c0       	rjmp	.+2      	; 0x141e <motors_set_speeds+0x5c>
void motors_flipLeft(bool flip)  { flipL = flip ? 1 : 0; }
void motors_flipRight(bool flip) { flipR = flip ? 1 : 0; }

static inline void set_one(int16_t spd, uint8_t dir_bit, volatile uint16_t *ocr, uint8_t flip)
{
	uint8_t reverse = 0;
    141c:	40 e0       	ldi	r20, 0x00	; 0

	if (spd < 0) { spd = -spd; reverse = 1; }
	if (spd > (int16_t)gTOP) spd = (int16_t)gTOP;
    141e:	80 91 02 01 	lds	r24, 0x0102	; 0x800102 <gTOP>
    1422:	90 91 03 01 	lds	r25, 0x0103	; 0x800103 <gTOP+0x1>
    1426:	9c 01       	movw	r18, r24
    1428:	86 17       	cp	r24, r22
    142a:	97 07       	cpc	r25, r23
    142c:	0c f0       	brlt	.+2      	; 0x1430 <motors_set_speeds+0x6e>
    142e:	9b 01       	movw	r18, r22
#define LEFT_PWM  PB6   // OC1B

static uint8_t  flipL = 0, flipR = 0;
static uint16_t gTOP  = 400;

static inline uint16_t clampu(uint16_t x, uint16_t hi) { return x > hi ? hi : x; }
    1430:	28 17       	cp	r18, r24
    1432:	39 07       	cpc	r19, r25
    1434:	08 f4       	brcc	.+2      	; 0x1438 <motors_set_speeds+0x76>
    1436:	c9 01       	movw	r24, r18
	uint8_t reverse = 0;

	if (spd < 0) { spd = -spd; reverse = 1; }
	if (spd > (int16_t)gTOP) spd = (int16_t)gTOP;

	*ocr = clampu((uint16_t)spd, gTOP);
    1438:	90 93 89 00 	sts	0x0089, r25	; 0x800089 <__TEXT_REGION_LENGTH__+0x7f8089>
    143c:	80 93 88 00 	sts	0x0088, r24	; 0x800088 <__TEXT_REGION_LENGTH__+0x7f8088>

	// reverse ^ flip -> DIR high
	if (reverse ^ flip) PORTB |=  _BV(dir_bit);
    1440:	54 17       	cp	r21, r20
    1442:	21 f0       	breq	.+8      	; 0x144c <motors_set_speeds+0x8a>
    1444:	85 b1       	in	r24, 0x05	; 5
    1446:	82 60       	ori	r24, 0x02	; 2
    1448:	85 b9       	out	0x05, r24	; 5
    144a:	08 95       	ret
	else                PORTB &= ~_BV(dir_bit);
    144c:	85 b1       	in	r24, 0x05	; 5
    144e:	8d 7f       	andi	r24, 0xFD	; 253
    1450:	85 b9       	out	0x05, r24	; 5
    1452:	08 95       	ret

00001454 <OLED_init>:


void OLED_init(void)
{
	// set reset pin to output
	DDRD |= 1<<OLEDRES;
    1454:	8a b1       	in	r24, 0x0a	; 10
    1456:	84 60       	ori	r24, 0x04	; 4
    1458:	8a b9       	out	0x0a, r24	; 10

	// set clock pin to output and make it low
	DDRD |= 1<<OLEDCLK;
    145a:	8a b1       	in	r24, 0x0a	; 10
    145c:	88 60       	ori	r24, 0x08	; 8
    145e:	8a b9       	out	0x0a, r24	; 10
	PORTD &= ~(1<<OLEDCLK);
    1460:	8b b1       	in	r24, 0x0b	; 11
    1462:	87 7f       	andi	r24, 0xF7	; 247
    1464:	8b b9       	out	0x0b, r24	; 11

	// set MOSI pin to output
	DDRD |= 1<<OLEDMOSI;
    1466:	8a b1       	in	r24, 0x0a	; 10
    1468:	80 62       	ori	r24, 0x20	; 32
    146a:	8a b9       	out	0x0a, r24	; 10


	// set data/command pin to output
	DDRB |= 1<<OLEDDC;
    146c:	84 b1       	in	r24, 0x04	; 4
    146e:	81 60       	ori	r24, 0x01	; 1
    1470:	84 b9       	out	0x04, r24	; 4
    1472:	08 95       	ret

00001474 <OLED_clk_low>:
	
}

void OLED_clk_low(void)
{
	PORTD &= ~(1<<OLEDCLK);
    1474:	8b b1       	in	r24, 0x0b	; 11
    1476:	87 7f       	andi	r24, 0xF7	; 247
    1478:	8b b9       	out	0x0b, r24	; 11
    147a:	08 95       	ret

0000147c <OLED_clk_high>:
	
}
void OLED_clk_high(void)
{
	PORTD |= (1<<OLEDCLK);
    147c:	8b b1       	in	r24, 0x0b	; 11
    147e:	88 60       	ori	r24, 0x08	; 8
    1480:	8b b9       	out	0x0b, r24	; 11
    1482:	08 95       	ret

00001484 <OLED_mos_pin>:
	
}

void OLED_mos_pin(uint8_t val)
{
	if(val==0) PORTD &= ~(1<<OLEDMOSI);
    1484:	81 11       	cpse	r24, r1
    1486:	04 c0       	rjmp	.+8      	; 0x1490 <OLED_mos_pin+0xc>
    1488:	8b b1       	in	r24, 0x0b	; 11
    148a:	8f 7d       	andi	r24, 0xDF	; 223
    148c:	8b b9       	out	0x0b, r24	; 11
    148e:	08 95       	ret
	else PORTD |= 1<<OLEDMOSI;
    1490:	8b b1       	in	r24, 0x0b	; 11
    1492:	80 62       	ori	r24, 0x20	; 32
    1494:	8b b9       	out	0x0b, r24	; 11
    1496:	08 95       	ret

00001498 <OLED_reset>:
}

void OLED_reset(void)
{
	PORTD &= ~(1<<OLEDRES);
    1498:	8b b1       	in	r24, 0x0b	; 11
    149a:	8b 7f       	andi	r24, 0xFB	; 251
    149c:	8b b9       	out	0x0b, r24	; 11
	#else
		//round up by default
		__ticks_dc = (uint32_t)(ceil(fabs(__tmp)));
	#endif

	__builtin_avr_delay_cycles(__ticks_dc);
    149e:	85 e3       	ldi	r24, 0x35	; 53
    14a0:	8a 95       	dec	r24
    14a2:	f1 f7       	brne	.-4      	; 0x14a0 <OLED_reset+0x8>
    14a4:	00 00       	nop
	_delay_us(10);
	PORTD |= (1<<OLEDRES);
    14a6:	8b b1       	in	r24, 0x0b	; 11
    14a8:	84 60       	ori	r24, 0x04	; 4
    14aa:	8b b9       	out	0x0b, r24	; 11
    14ac:	85 e3       	ldi	r24, 0x35	; 53
    14ae:	8a 95       	dec	r24
    14b0:	f1 f7       	brne	.-4      	; 0x14ae <OLED_reset+0x16>
    14b2:	00 00       	nop
    14b4:	08 95       	ret

000014b6 <OLED_commandMode>:
	OLED_write(SET_DISPLAY_ON | 1);
}

void OLED_commandMode(void)
{
	PORTB &= ~(1<<OLEDDC);
    14b6:	85 b1       	in	r24, 0x05	; 5
    14b8:	8e 7f       	andi	r24, 0xFE	; 254
    14ba:	85 b9       	out	0x05, r24	; 5
    14bc:	08 95       	ret

000014be <OLED_dataMode>:
}

void OLED_dataMode(void)
{
	PORTB |= (1<<OLEDDC);
    14be:	85 b1       	in	r24, 0x05	; 5
    14c0:	81 60       	ori	r24, 0x01	; 1
    14c2:	85 b9       	out	0x05, r24	; 5
    14c4:	08 95       	ret

000014c6 <OLED_write>:
}


void OLED_write(uint8_t d)
{
    14c6:	cf 93       	push	r28
    14c8:	c8 2f       	mov	r28, r24
	OLED_clk_low();
    14ca:	0e 94 3a 0a 	call	0x1474	; 0x1474 <OLED_clk_low>
	OLED_mos_pin(d >> 7 & 0x01);
    14ce:	8c 2f       	mov	r24, r28
    14d0:	88 1f       	adc	r24, r24
    14d2:	88 27       	eor	r24, r24
    14d4:	88 1f       	adc	r24, r24
    14d6:	0e 94 42 0a 	call	0x1484	; 0x1484 <OLED_mos_pin>
	OLED_clk_high();
    14da:	0e 94 3e 0a 	call	0x147c	; 0x147c <OLED_clk_high>
	
	OLED_clk_low();
    14de:	0e 94 3a 0a 	call	0x1474	; 0x1474 <OLED_clk_low>
	OLED_mos_pin(d >> 6 & 0x01);
    14e2:	c6 fb       	bst	r28, 6
    14e4:	88 27       	eor	r24, r24
    14e6:	80 f9       	bld	r24, 0
    14e8:	0e 94 42 0a 	call	0x1484	; 0x1484 <OLED_mos_pin>
	OLED_clk_high();
    14ec:	0e 94 3e 0a 	call	0x147c	; 0x147c <OLED_clk_high>

	OLED_clk_low();
    14f0:	0e 94 3a 0a 	call	0x1474	; 0x1474 <OLED_clk_low>
	OLED_mos_pin(d >> 5 & 0x01);
    14f4:	c5 fb       	bst	r28, 5
    14f6:	88 27       	eor	r24, r24
    14f8:	80 f9       	bld	r24, 0
    14fa:	0e 94 42 0a 	call	0x1484	; 0x1484 <OLED_mos_pin>
	OLED_clk_high();
    14fe:	0e 94 3e 0a 	call	0x147c	; 0x147c <OLED_clk_high>
	
	OLED_clk_low();
    1502:	0e 94 3a 0a 	call	0x1474	; 0x1474 <OLED_clk_low>
	OLED_mos_pin(d >> 4 & 0x01);
    1506:	c4 fb       	bst	r28, 4
    1508:	88 27       	eor	r24, r24
    150a:	80 f9       	bld	r24, 0
    150c:	0e 94 42 0a 	call	0x1484	; 0x1484 <OLED_mos_pin>
	OLED_clk_high();
    1510:	0e 94 3e 0a 	call	0x147c	; 0x147c <OLED_clk_high>
	
	OLED_clk_low();
    1514:	0e 94 3a 0a 	call	0x1474	; 0x1474 <OLED_clk_low>
	OLED_mos_pin(d >> 3 & 0x01);
    1518:	c3 fb       	bst	r28, 3
    151a:	88 27       	eor	r24, r24
    151c:	80 f9       	bld	r24, 0
    151e:	0e 94 42 0a 	call	0x1484	; 0x1484 <OLED_mos_pin>
	OLED_clk_high();
    1522:	0e 94 3e 0a 	call	0x147c	; 0x147c <OLED_clk_high>

	OLED_clk_low();
    1526:	0e 94 3a 0a 	call	0x1474	; 0x1474 <OLED_clk_low>
	OLED_mos_pin(d >> 2 & 0x01);
    152a:	c2 fb       	bst	r28, 2
    152c:	88 27       	eor	r24, r24
    152e:	80 f9       	bld	r24, 0
    1530:	0e 94 42 0a 	call	0x1484	; 0x1484 <OLED_mos_pin>
	OLED_clk_high();
    1534:	0e 94 3e 0a 	call	0x147c	; 0x147c <OLED_clk_high>
	
	OLED_clk_low();
    1538:	0e 94 3a 0a 	call	0x1474	; 0x1474 <OLED_clk_low>
	OLED_mos_pin(d >> 1 & 0x01);
    153c:	c1 fb       	bst	r28, 1
    153e:	88 27       	eor	r24, r24
    1540:	80 f9       	bld	r24, 0
    1542:	0e 94 42 0a 	call	0x1484	; 0x1484 <OLED_mos_pin>
	OLED_clk_high();
    1546:	0e 94 3e 0a 	call	0x147c	; 0x147c <OLED_clk_high>

	OLED_clk_low();
    154a:	0e 94 3a 0a 	call	0x1474	; 0x1474 <OLED_clk_low>
	OLED_mos_pin(d >> 0 & 0x01);
    154e:	8c 2f       	mov	r24, r28
    1550:	81 70       	andi	r24, 0x01	; 1
    1552:	0e 94 42 0a 	call	0x1484	; 0x1484 <OLED_mos_pin>
	OLED_clk_high();
    1556:	0e 94 3e 0a 	call	0x147c	; 0x147c <OLED_clk_high>
}
    155a:	cf 91       	pop	r28
    155c:	08 95       	ret

0000155e <OLED_clearDisplayRam>:
	_delay_us(10);
}


void OLED_clearDisplayRam(void)
{
    155e:	cf 93       	push	r28
    1560:	df 93       	push	r29
	OLED_clk_low();
    1562:	0e 94 3a 0a 	call	0x1474	; 0x1474 <OLED_clk_low>
	OLED_commandMode();
    1566:	0e 94 5b 0a 	call	0x14b6	; 0x14b6 <OLED_commandMode>
	OLED_write(SET_COL_ADDR_LOW | 2);
    156a:	82 e0       	ldi	r24, 0x02	; 2
    156c:	0e 94 63 0a 	call	0x14c6	; 0x14c6 <OLED_write>
	for (uint8_t page = 0;page < 8; page++)
    1570:	d0 e0       	ldi	r29, 0x00	; 0
    1572:	14 c0       	rjmp	.+40     	; 0x159c <OLED_clearDisplayRam+0x3e>
	{
		OLED_commandMode();
    1574:	0e 94 5b 0a 	call	0x14b6	; 0x14b6 <OLED_commandMode>
		OLED_write(SET_PAGE_ADDR | page);
    1578:	8d 2f       	mov	r24, r29
    157a:	80 6b       	ori	r24, 0xB0	; 176
    157c:	0e 94 63 0a 	call	0x14c6	; 0x14c6 <OLED_write>
		OLED_write(SET_COL_ADDR_HIGH | 0);
    1580:	80 e1       	ldi	r24, 0x10	; 16
    1582:	0e 94 63 0a 	call	0x14c6	; 0x14c6 <OLED_write>
		OLED_dataMode();
    1586:	0e 94 5f 0a 	call	0x14be	; 0x14be <OLED_dataMode>
		for (uint8_t i = 0 ; i < 128; i++)
    158a:	c0 e0       	ldi	r28, 0x00	; 0
    158c:	04 c0       	rjmp	.+8      	; 0x1596 <OLED_clearDisplayRam+0x38>
		{
			OLED_write(0);
    158e:	80 e0       	ldi	r24, 0x00	; 0
    1590:	0e 94 63 0a 	call	0x14c6	; 0x14c6 <OLED_write>
	{
		OLED_commandMode();
		OLED_write(SET_PAGE_ADDR | page);
		OLED_write(SET_COL_ADDR_HIGH | 0);
		OLED_dataMode();
		for (uint8_t i = 0 ; i < 128; i++)
    1594:	cf 5f       	subi	r28, 0xFF	; 255
    1596:	cc 23       	and	r28, r28
    1598:	d4 f7       	brge	.-12     	; 0x158e <OLED_clearDisplayRam+0x30>
void OLED_clearDisplayRam(void)
{
	OLED_clk_low();
	OLED_commandMode();
	OLED_write(SET_COL_ADDR_LOW | 2);
	for (uint8_t page = 0;page < 8; page++)
    159a:	df 5f       	subi	r29, 0xFF	; 255
    159c:	d8 30       	cpi	r29, 0x08	; 8
    159e:	50 f3       	brcs	.-44     	; 0x1574 <OLED_clearDisplayRam+0x16>
		for (uint8_t i = 0 ; i < 128; i++)
		{
			OLED_write(0);
		}
	}
}
    15a0:	df 91       	pop	r29
    15a2:	cf 91       	pop	r28
    15a4:	08 95       	ret

000015a6 <OLED_configureDefault>:

void OLED_configureDefault(void)
{
	OLED_clk_low();	
    15a6:	0e 94 3a 0a 	call	0x1474	; 0x1474 <OLED_clk_low>
	OLED_commandMode();
    15aa:	0e 94 5b 0a 	call	0x14b6	; 0x14b6 <OLED_commandMode>
	OLED_write(SET_SEG_REMAP | 1);
    15ae:	81 ea       	ldi	r24, 0xA1	; 161
    15b0:	0e 94 63 0a 	call	0x14c6	; 0x14c6 <OLED_write>
	OLED_write(SET_COM_SCAN_DIR | 8);
    15b4:	88 ec       	ldi	r24, 0xC8	; 200
    15b6:	0e 94 63 0a 	call	0x14c6	; 0x14c6 <OLED_write>
	OLED_write(SET_CONTRAST);
    15ba:	81 e8       	ldi	r24, 0x81	; 129
    15bc:	0e 94 63 0a 	call	0x14c6	; 0x14c6 <OLED_write>
	OLED_write(0xFF);
    15c0:	8f ef       	ldi	r24, 0xFF	; 255
    15c2:	0e 94 63 0a 	call	0x14c6	; 0x14c6 <OLED_write>
	OLED_write(SET_DISPLAY_ON | 1);
    15c6:	8f ea       	ldi	r24, 0xAF	; 175
    15c8:	0e 94 63 0a 	call	0x14c6	; 0x14c6 <OLED_write>
    15cc:	08 95       	ret

000015ce <getGlyphColumn>:
		OLED_write(0);
	}
}
uint8_t getGlyphColumn(uint8_t glyph, uint8_t pixelX)
{
	if(glyph>=0x20)
    15ce:	80 32       	cpi	r24, 0x20	; 32
    15d0:	78 f0       	brcs	.+30     	; 0x15f0 <getGlyphColumn+0x22>
	{
		return pgm_read_byte(&pololuOledFont[glyph - 0x20][pixelX]);
    15d2:	90 e0       	ldi	r25, 0x00	; 0
    15d4:	80 97       	sbiw	r24, 0x20	; 32
    15d6:	fc 01       	movw	r30, r24
    15d8:	ee 0f       	add	r30, r30
    15da:	ff 1f       	adc	r31, r31
    15dc:	ee 0f       	add	r30, r30
    15de:	ff 1f       	adc	r31, r31
    15e0:	e8 0f       	add	r30, r24
    15e2:	f9 1f       	adc	r31, r25
    15e4:	e6 0f       	add	r30, r22
    15e6:	f1 1d       	adc	r31, r1
    15e8:	e4 55       	subi	r30, 0x54	; 84
    15ea:	ff 4f       	sbci	r31, 0xFF	; 255
    15ec:	84 91       	lpm	r24, Z
    15ee:	08 95       	ret
	}
	return(0);
    15f0:	80 e0       	ldi	r24, 0x00	; 0
}
    15f2:	08 95       	ret

000015f4 <__mulsi3>:
    15f4:	db 01       	movw	r26, r22
    15f6:	8f 93       	push	r24
    15f8:	9f 93       	push	r25
    15fa:	0e 94 6e 0b 	call	0x16dc	; 0x16dc <__muluhisi3>
    15fe:	bf 91       	pop	r27
    1600:	af 91       	pop	r26
    1602:	a2 9f       	mul	r26, r18
    1604:	80 0d       	add	r24, r0
    1606:	91 1d       	adc	r25, r1
    1608:	a3 9f       	mul	r26, r19
    160a:	90 0d       	add	r25, r0
    160c:	b2 9f       	mul	r27, r18
    160e:	90 0d       	add	r25, r0
    1610:	11 24       	eor	r1, r1
    1612:	08 95       	ret

00001614 <__divmodhi4>:
    1614:	97 fb       	bst	r25, 7
    1616:	07 2e       	mov	r0, r23
    1618:	16 f4       	brtc	.+4      	; 0x161e <__divmodhi4+0xa>
    161a:	00 94       	com	r0
    161c:	07 d0       	rcall	.+14     	; 0x162c <__divmodhi4_neg1>
    161e:	77 fd       	sbrc	r23, 7
    1620:	09 d0       	rcall	.+18     	; 0x1634 <__divmodhi4_neg2>
    1622:	0e 94 79 0b 	call	0x16f2	; 0x16f2 <__udivmodhi4>
    1626:	07 fc       	sbrc	r0, 7
    1628:	05 d0       	rcall	.+10     	; 0x1634 <__divmodhi4_neg2>
    162a:	3e f4       	brtc	.+14     	; 0x163a <__divmodhi4_exit>

0000162c <__divmodhi4_neg1>:
    162c:	90 95       	com	r25
    162e:	81 95       	neg	r24
    1630:	9f 4f       	sbci	r25, 0xFF	; 255
    1632:	08 95       	ret

00001634 <__divmodhi4_neg2>:
    1634:	70 95       	com	r23
    1636:	61 95       	neg	r22
    1638:	7f 4f       	sbci	r23, 0xFF	; 255

0000163a <__divmodhi4_exit>:
    163a:	08 95       	ret

0000163c <__udivmodsi4>:
    163c:	a1 e2       	ldi	r26, 0x21	; 33
    163e:	1a 2e       	mov	r1, r26
    1640:	aa 1b       	sub	r26, r26
    1642:	bb 1b       	sub	r27, r27
    1644:	fd 01       	movw	r30, r26
    1646:	0d c0       	rjmp	.+26     	; 0x1662 <__udivmodsi4_ep>

00001648 <__udivmodsi4_loop>:
    1648:	aa 1f       	adc	r26, r26
    164a:	bb 1f       	adc	r27, r27
    164c:	ee 1f       	adc	r30, r30
    164e:	ff 1f       	adc	r31, r31
    1650:	a2 17       	cp	r26, r18
    1652:	b3 07       	cpc	r27, r19
    1654:	e4 07       	cpc	r30, r20
    1656:	f5 07       	cpc	r31, r21
    1658:	20 f0       	brcs	.+8      	; 0x1662 <__udivmodsi4_ep>
    165a:	a2 1b       	sub	r26, r18
    165c:	b3 0b       	sbc	r27, r19
    165e:	e4 0b       	sbc	r30, r20
    1660:	f5 0b       	sbc	r31, r21

00001662 <__udivmodsi4_ep>:
    1662:	66 1f       	adc	r22, r22
    1664:	77 1f       	adc	r23, r23
    1666:	88 1f       	adc	r24, r24
    1668:	99 1f       	adc	r25, r25
    166a:	1a 94       	dec	r1
    166c:	69 f7       	brne	.-38     	; 0x1648 <__udivmodsi4_loop>
    166e:	60 95       	com	r22
    1670:	70 95       	com	r23
    1672:	80 95       	com	r24
    1674:	90 95       	com	r25
    1676:	9b 01       	movw	r18, r22
    1678:	ac 01       	movw	r20, r24
    167a:	bd 01       	movw	r22, r26
    167c:	cf 01       	movw	r24, r30
    167e:	08 95       	ret

00001680 <__divmodsi4>:
    1680:	05 2e       	mov	r0, r21
    1682:	97 fb       	bst	r25, 7
    1684:	1e f4       	brtc	.+6      	; 0x168c <__divmodsi4+0xc>
    1686:	00 94       	com	r0
    1688:	0e 94 57 0b 	call	0x16ae	; 0x16ae <__negsi2>
    168c:	57 fd       	sbrc	r21, 7
    168e:	07 d0       	rcall	.+14     	; 0x169e <__divmodsi4_neg2>
    1690:	0e 94 1e 0b 	call	0x163c	; 0x163c <__udivmodsi4>
    1694:	07 fc       	sbrc	r0, 7
    1696:	03 d0       	rcall	.+6      	; 0x169e <__divmodsi4_neg2>
    1698:	4e f4       	brtc	.+18     	; 0x16ac <__divmodsi4_exit>
    169a:	0c 94 57 0b 	jmp	0x16ae	; 0x16ae <__negsi2>

0000169e <__divmodsi4_neg2>:
    169e:	50 95       	com	r21
    16a0:	40 95       	com	r20
    16a2:	30 95       	com	r19
    16a4:	21 95       	neg	r18
    16a6:	3f 4f       	sbci	r19, 0xFF	; 255
    16a8:	4f 4f       	sbci	r20, 0xFF	; 255
    16aa:	5f 4f       	sbci	r21, 0xFF	; 255

000016ac <__divmodsi4_exit>:
    16ac:	08 95       	ret

000016ae <__negsi2>:
    16ae:	90 95       	com	r25
    16b0:	80 95       	com	r24
    16b2:	70 95       	com	r23
    16b4:	61 95       	neg	r22
    16b6:	7f 4f       	sbci	r23, 0xFF	; 255
    16b8:	8f 4f       	sbci	r24, 0xFF	; 255
    16ba:	9f 4f       	sbci	r25, 0xFF	; 255
    16bc:	08 95       	ret

000016be <__umulhisi3>:
    16be:	a2 9f       	mul	r26, r18
    16c0:	b0 01       	movw	r22, r0
    16c2:	b3 9f       	mul	r27, r19
    16c4:	c0 01       	movw	r24, r0
    16c6:	a3 9f       	mul	r26, r19
    16c8:	70 0d       	add	r23, r0
    16ca:	81 1d       	adc	r24, r1
    16cc:	11 24       	eor	r1, r1
    16ce:	91 1d       	adc	r25, r1
    16d0:	b2 9f       	mul	r27, r18
    16d2:	70 0d       	add	r23, r0
    16d4:	81 1d       	adc	r24, r1
    16d6:	11 24       	eor	r1, r1
    16d8:	91 1d       	adc	r25, r1
    16da:	08 95       	ret

000016dc <__muluhisi3>:
    16dc:	0e 94 5f 0b 	call	0x16be	; 0x16be <__umulhisi3>
    16e0:	a5 9f       	mul	r26, r21
    16e2:	90 0d       	add	r25, r0
    16e4:	b4 9f       	mul	r27, r20
    16e6:	90 0d       	add	r25, r0
    16e8:	a4 9f       	mul	r26, r20
    16ea:	80 0d       	add	r24, r0
    16ec:	91 1d       	adc	r25, r1
    16ee:	11 24       	eor	r1, r1
    16f0:	08 95       	ret

000016f2 <__udivmodhi4>:
    16f2:	aa 1b       	sub	r26, r26
    16f4:	bb 1b       	sub	r27, r27
    16f6:	51 e1       	ldi	r21, 0x11	; 17
    16f8:	07 c0       	rjmp	.+14     	; 0x1708 <__udivmodhi4_ep>

000016fa <__udivmodhi4_loop>:
    16fa:	aa 1f       	adc	r26, r26
    16fc:	bb 1f       	adc	r27, r27
    16fe:	a6 17       	cp	r26, r22
    1700:	b7 07       	cpc	r27, r23
    1702:	10 f0       	brcs	.+4      	; 0x1708 <__udivmodhi4_ep>
    1704:	a6 1b       	sub	r26, r22
    1706:	b7 0b       	sbc	r27, r23

00001708 <__udivmodhi4_ep>:
    1708:	88 1f       	adc	r24, r24
    170a:	99 1f       	adc	r25, r25
    170c:	5a 95       	dec	r21
    170e:	a9 f7       	brne	.-22     	; 0x16fa <__udivmodhi4_loop>
    1710:	80 95       	com	r24
    1712:	90 95       	com	r25
    1714:	bc 01       	movw	r22, r24
    1716:	cd 01       	movw	r24, r26
    1718:	08 95       	ret

0000171a <snprintf>:
    171a:	ae e0       	ldi	r26, 0x0E	; 14
    171c:	b0 e0       	ldi	r27, 0x00	; 0
    171e:	e3 e9       	ldi	r30, 0x93	; 147
    1720:	fb e0       	ldi	r31, 0x0B	; 11
    1722:	0c 94 5c 0e 	jmp	0x1cb8	; 0x1cb8 <__prologue_saves__+0x1c>
    1726:	0d 89       	ldd	r16, Y+21	; 0x15
    1728:	1e 89       	ldd	r17, Y+22	; 0x16
    172a:	8f 89       	ldd	r24, Y+23	; 0x17
    172c:	98 8d       	ldd	r25, Y+24	; 0x18
    172e:	26 e0       	ldi	r18, 0x06	; 6
    1730:	2c 83       	std	Y+4, r18	; 0x04
    1732:	1a 83       	std	Y+2, r17	; 0x02
    1734:	09 83       	std	Y+1, r16	; 0x01
    1736:	97 ff       	sbrs	r25, 7
    1738:	02 c0       	rjmp	.+4      	; 0x173e <snprintf+0x24>
    173a:	80 e0       	ldi	r24, 0x00	; 0
    173c:	90 e8       	ldi	r25, 0x80	; 128
    173e:	01 97       	sbiw	r24, 0x01	; 1
    1740:	9e 83       	std	Y+6, r25	; 0x06
    1742:	8d 83       	std	Y+5, r24	; 0x05
    1744:	ae 01       	movw	r20, r28
    1746:	45 5e       	subi	r20, 0xE5	; 229
    1748:	5f 4f       	sbci	r21, 0xFF	; 255
    174a:	69 8d       	ldd	r22, Y+25	; 0x19
    174c:	7a 8d       	ldd	r23, Y+26	; 0x1a
    174e:	ce 01       	movw	r24, r28
    1750:	01 96       	adiw	r24, 0x01	; 1
    1752:	0e 94 bd 0b 	call	0x177a	; 0x177a <vfprintf>
    1756:	4d 81       	ldd	r20, Y+5	; 0x05
    1758:	5e 81       	ldd	r21, Y+6	; 0x06
    175a:	57 fd       	sbrc	r21, 7
    175c:	0a c0       	rjmp	.+20     	; 0x1772 <snprintf+0x58>
    175e:	2f 81       	ldd	r18, Y+7	; 0x07
    1760:	38 85       	ldd	r19, Y+8	; 0x08
    1762:	42 17       	cp	r20, r18
    1764:	53 07       	cpc	r21, r19
    1766:	0c f4       	brge	.+2      	; 0x176a <snprintf+0x50>
    1768:	9a 01       	movw	r18, r20
    176a:	f8 01       	movw	r30, r16
    176c:	e2 0f       	add	r30, r18
    176e:	f3 1f       	adc	r31, r19
    1770:	10 82       	st	Z, r1
    1772:	2e 96       	adiw	r28, 0x0e	; 14
    1774:	e4 e0       	ldi	r30, 0x04	; 4
    1776:	0c 94 78 0e 	jmp	0x1cf0	; 0x1cf0 <__epilogue_restores__+0x1c>

0000177a <vfprintf>:
    177a:	ab e0       	ldi	r26, 0x0B	; 11
    177c:	b0 e0       	ldi	r27, 0x00	; 0
    177e:	e3 ec       	ldi	r30, 0xC3	; 195
    1780:	fb e0       	ldi	r31, 0x0B	; 11
    1782:	0c 94 4e 0e 	jmp	0x1c9c	; 0x1c9c <__prologue_saves__>
    1786:	6c 01       	movw	r12, r24
    1788:	7b 01       	movw	r14, r22
    178a:	8a 01       	movw	r16, r20
    178c:	fc 01       	movw	r30, r24
    178e:	17 82       	std	Z+7, r1	; 0x07
    1790:	16 82       	std	Z+6, r1	; 0x06
    1792:	83 81       	ldd	r24, Z+3	; 0x03
    1794:	81 ff       	sbrs	r24, 1
    1796:	cc c1       	rjmp	.+920    	; 0x1b30 <vfprintf+0x3b6>
    1798:	ce 01       	movw	r24, r28
    179a:	01 96       	adiw	r24, 0x01	; 1
    179c:	3c 01       	movw	r6, r24
    179e:	f6 01       	movw	r30, r12
    17a0:	93 81       	ldd	r25, Z+3	; 0x03
    17a2:	f7 01       	movw	r30, r14
    17a4:	93 fd       	sbrc	r25, 3
    17a6:	85 91       	lpm	r24, Z+
    17a8:	93 ff       	sbrs	r25, 3
    17aa:	81 91       	ld	r24, Z+
    17ac:	7f 01       	movw	r14, r30
    17ae:	88 23       	and	r24, r24
    17b0:	09 f4       	brne	.+2      	; 0x17b4 <vfprintf+0x3a>
    17b2:	ba c1       	rjmp	.+884    	; 0x1b28 <vfprintf+0x3ae>
    17b4:	85 32       	cpi	r24, 0x25	; 37
    17b6:	39 f4       	brne	.+14     	; 0x17c6 <vfprintf+0x4c>
    17b8:	93 fd       	sbrc	r25, 3
    17ba:	85 91       	lpm	r24, Z+
    17bc:	93 ff       	sbrs	r25, 3
    17be:	81 91       	ld	r24, Z+
    17c0:	7f 01       	movw	r14, r30
    17c2:	85 32       	cpi	r24, 0x25	; 37
    17c4:	29 f4       	brne	.+10     	; 0x17d0 <vfprintf+0x56>
    17c6:	b6 01       	movw	r22, r12
    17c8:	90 e0       	ldi	r25, 0x00	; 0
    17ca:	0e 94 b4 0d 	call	0x1b68	; 0x1b68 <fputc>
    17ce:	e7 cf       	rjmp	.-50     	; 0x179e <vfprintf+0x24>
    17d0:	91 2c       	mov	r9, r1
    17d2:	21 2c       	mov	r2, r1
    17d4:	31 2c       	mov	r3, r1
    17d6:	ff e1       	ldi	r31, 0x1F	; 31
    17d8:	f3 15       	cp	r31, r3
    17da:	d8 f0       	brcs	.+54     	; 0x1812 <vfprintf+0x98>
    17dc:	8b 32       	cpi	r24, 0x2B	; 43
    17de:	79 f0       	breq	.+30     	; 0x17fe <vfprintf+0x84>
    17e0:	38 f4       	brcc	.+14     	; 0x17f0 <vfprintf+0x76>
    17e2:	80 32       	cpi	r24, 0x20	; 32
    17e4:	79 f0       	breq	.+30     	; 0x1804 <vfprintf+0x8a>
    17e6:	83 32       	cpi	r24, 0x23	; 35
    17e8:	a1 f4       	brne	.+40     	; 0x1812 <vfprintf+0x98>
    17ea:	23 2d       	mov	r18, r3
    17ec:	20 61       	ori	r18, 0x10	; 16
    17ee:	1d c0       	rjmp	.+58     	; 0x182a <vfprintf+0xb0>
    17f0:	8d 32       	cpi	r24, 0x2D	; 45
    17f2:	61 f0       	breq	.+24     	; 0x180c <vfprintf+0x92>
    17f4:	80 33       	cpi	r24, 0x30	; 48
    17f6:	69 f4       	brne	.+26     	; 0x1812 <vfprintf+0x98>
    17f8:	23 2d       	mov	r18, r3
    17fa:	21 60       	ori	r18, 0x01	; 1
    17fc:	16 c0       	rjmp	.+44     	; 0x182a <vfprintf+0xb0>
    17fe:	83 2d       	mov	r24, r3
    1800:	82 60       	ori	r24, 0x02	; 2
    1802:	38 2e       	mov	r3, r24
    1804:	e3 2d       	mov	r30, r3
    1806:	e4 60       	ori	r30, 0x04	; 4
    1808:	3e 2e       	mov	r3, r30
    180a:	2a c0       	rjmp	.+84     	; 0x1860 <vfprintf+0xe6>
    180c:	f3 2d       	mov	r31, r3
    180e:	f8 60       	ori	r31, 0x08	; 8
    1810:	1d c0       	rjmp	.+58     	; 0x184c <vfprintf+0xd2>
    1812:	37 fc       	sbrc	r3, 7
    1814:	2d c0       	rjmp	.+90     	; 0x1870 <vfprintf+0xf6>
    1816:	20 ed       	ldi	r18, 0xD0	; 208
    1818:	28 0f       	add	r18, r24
    181a:	2a 30       	cpi	r18, 0x0A	; 10
    181c:	40 f0       	brcs	.+16     	; 0x182e <vfprintf+0xb4>
    181e:	8e 32       	cpi	r24, 0x2E	; 46
    1820:	b9 f4       	brne	.+46     	; 0x1850 <vfprintf+0xd6>
    1822:	36 fc       	sbrc	r3, 6
    1824:	81 c1       	rjmp	.+770    	; 0x1b28 <vfprintf+0x3ae>
    1826:	23 2d       	mov	r18, r3
    1828:	20 64       	ori	r18, 0x40	; 64
    182a:	32 2e       	mov	r3, r18
    182c:	19 c0       	rjmp	.+50     	; 0x1860 <vfprintf+0xe6>
    182e:	36 fe       	sbrs	r3, 6
    1830:	06 c0       	rjmp	.+12     	; 0x183e <vfprintf+0xc4>
    1832:	8a e0       	ldi	r24, 0x0A	; 10
    1834:	98 9e       	mul	r9, r24
    1836:	20 0d       	add	r18, r0
    1838:	11 24       	eor	r1, r1
    183a:	92 2e       	mov	r9, r18
    183c:	11 c0       	rjmp	.+34     	; 0x1860 <vfprintf+0xe6>
    183e:	ea e0       	ldi	r30, 0x0A	; 10
    1840:	2e 9e       	mul	r2, r30
    1842:	20 0d       	add	r18, r0
    1844:	11 24       	eor	r1, r1
    1846:	22 2e       	mov	r2, r18
    1848:	f3 2d       	mov	r31, r3
    184a:	f0 62       	ori	r31, 0x20	; 32
    184c:	3f 2e       	mov	r3, r31
    184e:	08 c0       	rjmp	.+16     	; 0x1860 <vfprintf+0xe6>
    1850:	8c 36       	cpi	r24, 0x6C	; 108
    1852:	21 f4       	brne	.+8      	; 0x185c <vfprintf+0xe2>
    1854:	83 2d       	mov	r24, r3
    1856:	80 68       	ori	r24, 0x80	; 128
    1858:	38 2e       	mov	r3, r24
    185a:	02 c0       	rjmp	.+4      	; 0x1860 <vfprintf+0xe6>
    185c:	88 36       	cpi	r24, 0x68	; 104
    185e:	41 f4       	brne	.+16     	; 0x1870 <vfprintf+0xf6>
    1860:	f7 01       	movw	r30, r14
    1862:	93 fd       	sbrc	r25, 3
    1864:	85 91       	lpm	r24, Z+
    1866:	93 ff       	sbrs	r25, 3
    1868:	81 91       	ld	r24, Z+
    186a:	7f 01       	movw	r14, r30
    186c:	81 11       	cpse	r24, r1
    186e:	b3 cf       	rjmp	.-154    	; 0x17d6 <vfprintf+0x5c>
    1870:	98 2f       	mov	r25, r24
    1872:	9f 7d       	andi	r25, 0xDF	; 223
    1874:	95 54       	subi	r25, 0x45	; 69
    1876:	93 30       	cpi	r25, 0x03	; 3
    1878:	28 f4       	brcc	.+10     	; 0x1884 <vfprintf+0x10a>
    187a:	0c 5f       	subi	r16, 0xFC	; 252
    187c:	1f 4f       	sbci	r17, 0xFF	; 255
    187e:	9f e3       	ldi	r25, 0x3F	; 63
    1880:	99 83       	std	Y+1, r25	; 0x01
    1882:	0d c0       	rjmp	.+26     	; 0x189e <vfprintf+0x124>
    1884:	83 36       	cpi	r24, 0x63	; 99
    1886:	31 f0       	breq	.+12     	; 0x1894 <vfprintf+0x11a>
    1888:	83 37       	cpi	r24, 0x73	; 115
    188a:	71 f0       	breq	.+28     	; 0x18a8 <vfprintf+0x12e>
    188c:	83 35       	cpi	r24, 0x53	; 83
    188e:	09 f0       	breq	.+2      	; 0x1892 <vfprintf+0x118>
    1890:	59 c0       	rjmp	.+178    	; 0x1944 <vfprintf+0x1ca>
    1892:	21 c0       	rjmp	.+66     	; 0x18d6 <vfprintf+0x15c>
    1894:	f8 01       	movw	r30, r16
    1896:	80 81       	ld	r24, Z
    1898:	89 83       	std	Y+1, r24	; 0x01
    189a:	0e 5f       	subi	r16, 0xFE	; 254
    189c:	1f 4f       	sbci	r17, 0xFF	; 255
    189e:	88 24       	eor	r8, r8
    18a0:	83 94       	inc	r8
    18a2:	91 2c       	mov	r9, r1
    18a4:	53 01       	movw	r10, r6
    18a6:	13 c0       	rjmp	.+38     	; 0x18ce <vfprintf+0x154>
    18a8:	28 01       	movw	r4, r16
    18aa:	f2 e0       	ldi	r31, 0x02	; 2
    18ac:	4f 0e       	add	r4, r31
    18ae:	51 1c       	adc	r5, r1
    18b0:	f8 01       	movw	r30, r16
    18b2:	a0 80       	ld	r10, Z
    18b4:	b1 80       	ldd	r11, Z+1	; 0x01
    18b6:	36 fe       	sbrs	r3, 6
    18b8:	03 c0       	rjmp	.+6      	; 0x18c0 <vfprintf+0x146>
    18ba:	69 2d       	mov	r22, r9
    18bc:	70 e0       	ldi	r23, 0x00	; 0
    18be:	02 c0       	rjmp	.+4      	; 0x18c4 <vfprintf+0x14a>
    18c0:	6f ef       	ldi	r22, 0xFF	; 255
    18c2:	7f ef       	ldi	r23, 0xFF	; 255
    18c4:	c5 01       	movw	r24, r10
    18c6:	0e 94 a9 0d 	call	0x1b52	; 0x1b52 <strnlen>
    18ca:	4c 01       	movw	r8, r24
    18cc:	82 01       	movw	r16, r4
    18ce:	f3 2d       	mov	r31, r3
    18d0:	ff 77       	andi	r31, 0x7F	; 127
    18d2:	3f 2e       	mov	r3, r31
    18d4:	16 c0       	rjmp	.+44     	; 0x1902 <vfprintf+0x188>
    18d6:	28 01       	movw	r4, r16
    18d8:	22 e0       	ldi	r18, 0x02	; 2
    18da:	42 0e       	add	r4, r18
    18dc:	51 1c       	adc	r5, r1
    18de:	f8 01       	movw	r30, r16
    18e0:	a0 80       	ld	r10, Z
    18e2:	b1 80       	ldd	r11, Z+1	; 0x01
    18e4:	36 fe       	sbrs	r3, 6
    18e6:	03 c0       	rjmp	.+6      	; 0x18ee <vfprintf+0x174>
    18e8:	69 2d       	mov	r22, r9
    18ea:	70 e0       	ldi	r23, 0x00	; 0
    18ec:	02 c0       	rjmp	.+4      	; 0x18f2 <vfprintf+0x178>
    18ee:	6f ef       	ldi	r22, 0xFF	; 255
    18f0:	7f ef       	ldi	r23, 0xFF	; 255
    18f2:	c5 01       	movw	r24, r10
    18f4:	0e 94 9e 0d 	call	0x1b3c	; 0x1b3c <strnlen_P>
    18f8:	4c 01       	movw	r8, r24
    18fa:	f3 2d       	mov	r31, r3
    18fc:	f0 68       	ori	r31, 0x80	; 128
    18fe:	3f 2e       	mov	r3, r31
    1900:	82 01       	movw	r16, r4
    1902:	33 fc       	sbrc	r3, 3
    1904:	1b c0       	rjmp	.+54     	; 0x193c <vfprintf+0x1c2>
    1906:	82 2d       	mov	r24, r2
    1908:	90 e0       	ldi	r25, 0x00	; 0
    190a:	88 16       	cp	r8, r24
    190c:	99 06       	cpc	r9, r25
    190e:	b0 f4       	brcc	.+44     	; 0x193c <vfprintf+0x1c2>
    1910:	b6 01       	movw	r22, r12
    1912:	80 e2       	ldi	r24, 0x20	; 32
    1914:	90 e0       	ldi	r25, 0x00	; 0
    1916:	0e 94 b4 0d 	call	0x1b68	; 0x1b68 <fputc>
    191a:	2a 94       	dec	r2
    191c:	f4 cf       	rjmp	.-24     	; 0x1906 <vfprintf+0x18c>
    191e:	f5 01       	movw	r30, r10
    1920:	37 fc       	sbrc	r3, 7
    1922:	85 91       	lpm	r24, Z+
    1924:	37 fe       	sbrs	r3, 7
    1926:	81 91       	ld	r24, Z+
    1928:	5f 01       	movw	r10, r30
    192a:	b6 01       	movw	r22, r12
    192c:	90 e0       	ldi	r25, 0x00	; 0
    192e:	0e 94 b4 0d 	call	0x1b68	; 0x1b68 <fputc>
    1932:	21 10       	cpse	r2, r1
    1934:	2a 94       	dec	r2
    1936:	21 e0       	ldi	r18, 0x01	; 1
    1938:	82 1a       	sub	r8, r18
    193a:	91 08       	sbc	r9, r1
    193c:	81 14       	cp	r8, r1
    193e:	91 04       	cpc	r9, r1
    1940:	71 f7       	brne	.-36     	; 0x191e <vfprintf+0x1a4>
    1942:	e8 c0       	rjmp	.+464    	; 0x1b14 <vfprintf+0x39a>
    1944:	84 36       	cpi	r24, 0x64	; 100
    1946:	11 f0       	breq	.+4      	; 0x194c <vfprintf+0x1d2>
    1948:	89 36       	cpi	r24, 0x69	; 105
    194a:	41 f5       	brne	.+80     	; 0x199c <vfprintf+0x222>
    194c:	f8 01       	movw	r30, r16
    194e:	37 fe       	sbrs	r3, 7
    1950:	07 c0       	rjmp	.+14     	; 0x1960 <vfprintf+0x1e6>
    1952:	60 81       	ld	r22, Z
    1954:	71 81       	ldd	r23, Z+1	; 0x01
    1956:	82 81       	ldd	r24, Z+2	; 0x02
    1958:	93 81       	ldd	r25, Z+3	; 0x03
    195a:	0c 5f       	subi	r16, 0xFC	; 252
    195c:	1f 4f       	sbci	r17, 0xFF	; 255
    195e:	08 c0       	rjmp	.+16     	; 0x1970 <vfprintf+0x1f6>
    1960:	60 81       	ld	r22, Z
    1962:	71 81       	ldd	r23, Z+1	; 0x01
    1964:	07 2e       	mov	r0, r23
    1966:	00 0c       	add	r0, r0
    1968:	88 0b       	sbc	r24, r24
    196a:	99 0b       	sbc	r25, r25
    196c:	0e 5f       	subi	r16, 0xFE	; 254
    196e:	1f 4f       	sbci	r17, 0xFF	; 255
    1970:	f3 2d       	mov	r31, r3
    1972:	ff 76       	andi	r31, 0x6F	; 111
    1974:	3f 2e       	mov	r3, r31
    1976:	97 ff       	sbrs	r25, 7
    1978:	09 c0       	rjmp	.+18     	; 0x198c <vfprintf+0x212>
    197a:	90 95       	com	r25
    197c:	80 95       	com	r24
    197e:	70 95       	com	r23
    1980:	61 95       	neg	r22
    1982:	7f 4f       	sbci	r23, 0xFF	; 255
    1984:	8f 4f       	sbci	r24, 0xFF	; 255
    1986:	9f 4f       	sbci	r25, 0xFF	; 255
    1988:	f0 68       	ori	r31, 0x80	; 128
    198a:	3f 2e       	mov	r3, r31
    198c:	2a e0       	ldi	r18, 0x0A	; 10
    198e:	30 e0       	ldi	r19, 0x00	; 0
    1990:	a3 01       	movw	r20, r6
    1992:	0e 94 f0 0d 	call	0x1be0	; 0x1be0 <__ultoa_invert>
    1996:	88 2e       	mov	r8, r24
    1998:	86 18       	sub	r8, r6
    199a:	45 c0       	rjmp	.+138    	; 0x1a26 <vfprintf+0x2ac>
    199c:	85 37       	cpi	r24, 0x75	; 117
    199e:	31 f4       	brne	.+12     	; 0x19ac <vfprintf+0x232>
    19a0:	23 2d       	mov	r18, r3
    19a2:	2f 7e       	andi	r18, 0xEF	; 239
    19a4:	b2 2e       	mov	r11, r18
    19a6:	2a e0       	ldi	r18, 0x0A	; 10
    19a8:	30 e0       	ldi	r19, 0x00	; 0
    19aa:	25 c0       	rjmp	.+74     	; 0x19f6 <vfprintf+0x27c>
    19ac:	93 2d       	mov	r25, r3
    19ae:	99 7f       	andi	r25, 0xF9	; 249
    19b0:	b9 2e       	mov	r11, r25
    19b2:	8f 36       	cpi	r24, 0x6F	; 111
    19b4:	c1 f0       	breq	.+48     	; 0x19e6 <vfprintf+0x26c>
    19b6:	18 f4       	brcc	.+6      	; 0x19be <vfprintf+0x244>
    19b8:	88 35       	cpi	r24, 0x58	; 88
    19ba:	79 f0       	breq	.+30     	; 0x19da <vfprintf+0x260>
    19bc:	b5 c0       	rjmp	.+362    	; 0x1b28 <vfprintf+0x3ae>
    19be:	80 37       	cpi	r24, 0x70	; 112
    19c0:	19 f0       	breq	.+6      	; 0x19c8 <vfprintf+0x24e>
    19c2:	88 37       	cpi	r24, 0x78	; 120
    19c4:	21 f0       	breq	.+8      	; 0x19ce <vfprintf+0x254>
    19c6:	b0 c0       	rjmp	.+352    	; 0x1b28 <vfprintf+0x3ae>
    19c8:	e9 2f       	mov	r30, r25
    19ca:	e0 61       	ori	r30, 0x10	; 16
    19cc:	be 2e       	mov	r11, r30
    19ce:	b4 fe       	sbrs	r11, 4
    19d0:	0d c0       	rjmp	.+26     	; 0x19ec <vfprintf+0x272>
    19d2:	fb 2d       	mov	r31, r11
    19d4:	f4 60       	ori	r31, 0x04	; 4
    19d6:	bf 2e       	mov	r11, r31
    19d8:	09 c0       	rjmp	.+18     	; 0x19ec <vfprintf+0x272>
    19da:	34 fe       	sbrs	r3, 4
    19dc:	0a c0       	rjmp	.+20     	; 0x19f2 <vfprintf+0x278>
    19de:	29 2f       	mov	r18, r25
    19e0:	26 60       	ori	r18, 0x06	; 6
    19e2:	b2 2e       	mov	r11, r18
    19e4:	06 c0       	rjmp	.+12     	; 0x19f2 <vfprintf+0x278>
    19e6:	28 e0       	ldi	r18, 0x08	; 8
    19e8:	30 e0       	ldi	r19, 0x00	; 0
    19ea:	05 c0       	rjmp	.+10     	; 0x19f6 <vfprintf+0x27c>
    19ec:	20 e1       	ldi	r18, 0x10	; 16
    19ee:	30 e0       	ldi	r19, 0x00	; 0
    19f0:	02 c0       	rjmp	.+4      	; 0x19f6 <vfprintf+0x27c>
    19f2:	20 e1       	ldi	r18, 0x10	; 16
    19f4:	32 e0       	ldi	r19, 0x02	; 2
    19f6:	f8 01       	movw	r30, r16
    19f8:	b7 fe       	sbrs	r11, 7
    19fa:	07 c0       	rjmp	.+14     	; 0x1a0a <vfprintf+0x290>
    19fc:	60 81       	ld	r22, Z
    19fe:	71 81       	ldd	r23, Z+1	; 0x01
    1a00:	82 81       	ldd	r24, Z+2	; 0x02
    1a02:	93 81       	ldd	r25, Z+3	; 0x03
    1a04:	0c 5f       	subi	r16, 0xFC	; 252
    1a06:	1f 4f       	sbci	r17, 0xFF	; 255
    1a08:	06 c0       	rjmp	.+12     	; 0x1a16 <vfprintf+0x29c>
    1a0a:	60 81       	ld	r22, Z
    1a0c:	71 81       	ldd	r23, Z+1	; 0x01
    1a0e:	80 e0       	ldi	r24, 0x00	; 0
    1a10:	90 e0       	ldi	r25, 0x00	; 0
    1a12:	0e 5f       	subi	r16, 0xFE	; 254
    1a14:	1f 4f       	sbci	r17, 0xFF	; 255
    1a16:	a3 01       	movw	r20, r6
    1a18:	0e 94 f0 0d 	call	0x1be0	; 0x1be0 <__ultoa_invert>
    1a1c:	88 2e       	mov	r8, r24
    1a1e:	86 18       	sub	r8, r6
    1a20:	fb 2d       	mov	r31, r11
    1a22:	ff 77       	andi	r31, 0x7F	; 127
    1a24:	3f 2e       	mov	r3, r31
    1a26:	36 fe       	sbrs	r3, 6
    1a28:	0d c0       	rjmp	.+26     	; 0x1a44 <vfprintf+0x2ca>
    1a2a:	23 2d       	mov	r18, r3
    1a2c:	2e 7f       	andi	r18, 0xFE	; 254
    1a2e:	a2 2e       	mov	r10, r18
    1a30:	89 14       	cp	r8, r9
    1a32:	58 f4       	brcc	.+22     	; 0x1a4a <vfprintf+0x2d0>
    1a34:	34 fe       	sbrs	r3, 4
    1a36:	0b c0       	rjmp	.+22     	; 0x1a4e <vfprintf+0x2d4>
    1a38:	32 fc       	sbrc	r3, 2
    1a3a:	09 c0       	rjmp	.+18     	; 0x1a4e <vfprintf+0x2d4>
    1a3c:	83 2d       	mov	r24, r3
    1a3e:	8e 7e       	andi	r24, 0xEE	; 238
    1a40:	a8 2e       	mov	r10, r24
    1a42:	05 c0       	rjmp	.+10     	; 0x1a4e <vfprintf+0x2d4>
    1a44:	b8 2c       	mov	r11, r8
    1a46:	a3 2c       	mov	r10, r3
    1a48:	03 c0       	rjmp	.+6      	; 0x1a50 <vfprintf+0x2d6>
    1a4a:	b8 2c       	mov	r11, r8
    1a4c:	01 c0       	rjmp	.+2      	; 0x1a50 <vfprintf+0x2d6>
    1a4e:	b9 2c       	mov	r11, r9
    1a50:	a4 fe       	sbrs	r10, 4
    1a52:	0f c0       	rjmp	.+30     	; 0x1a72 <vfprintf+0x2f8>
    1a54:	fe 01       	movw	r30, r28
    1a56:	e8 0d       	add	r30, r8
    1a58:	f1 1d       	adc	r31, r1
    1a5a:	80 81       	ld	r24, Z
    1a5c:	80 33       	cpi	r24, 0x30	; 48
    1a5e:	21 f4       	brne	.+8      	; 0x1a68 <vfprintf+0x2ee>
    1a60:	9a 2d       	mov	r25, r10
    1a62:	99 7e       	andi	r25, 0xE9	; 233
    1a64:	a9 2e       	mov	r10, r25
    1a66:	09 c0       	rjmp	.+18     	; 0x1a7a <vfprintf+0x300>
    1a68:	a2 fe       	sbrs	r10, 2
    1a6a:	06 c0       	rjmp	.+12     	; 0x1a78 <vfprintf+0x2fe>
    1a6c:	b3 94       	inc	r11
    1a6e:	b3 94       	inc	r11
    1a70:	04 c0       	rjmp	.+8      	; 0x1a7a <vfprintf+0x300>
    1a72:	8a 2d       	mov	r24, r10
    1a74:	86 78       	andi	r24, 0x86	; 134
    1a76:	09 f0       	breq	.+2      	; 0x1a7a <vfprintf+0x300>
    1a78:	b3 94       	inc	r11
    1a7a:	a3 fc       	sbrc	r10, 3
    1a7c:	11 c0       	rjmp	.+34     	; 0x1aa0 <vfprintf+0x326>
    1a7e:	a0 fe       	sbrs	r10, 0
    1a80:	06 c0       	rjmp	.+12     	; 0x1a8e <vfprintf+0x314>
    1a82:	b2 14       	cp	r11, r2
    1a84:	88 f4       	brcc	.+34     	; 0x1aa8 <vfprintf+0x32e>
    1a86:	28 0c       	add	r2, r8
    1a88:	92 2c       	mov	r9, r2
    1a8a:	9b 18       	sub	r9, r11
    1a8c:	0e c0       	rjmp	.+28     	; 0x1aaa <vfprintf+0x330>
    1a8e:	b2 14       	cp	r11, r2
    1a90:	60 f4       	brcc	.+24     	; 0x1aaa <vfprintf+0x330>
    1a92:	b6 01       	movw	r22, r12
    1a94:	80 e2       	ldi	r24, 0x20	; 32
    1a96:	90 e0       	ldi	r25, 0x00	; 0
    1a98:	0e 94 b4 0d 	call	0x1b68	; 0x1b68 <fputc>
    1a9c:	b3 94       	inc	r11
    1a9e:	f7 cf       	rjmp	.-18     	; 0x1a8e <vfprintf+0x314>
    1aa0:	b2 14       	cp	r11, r2
    1aa2:	18 f4       	brcc	.+6      	; 0x1aaa <vfprintf+0x330>
    1aa4:	2b 18       	sub	r2, r11
    1aa6:	02 c0       	rjmp	.+4      	; 0x1aac <vfprintf+0x332>
    1aa8:	98 2c       	mov	r9, r8
    1aaa:	21 2c       	mov	r2, r1
    1aac:	a4 fe       	sbrs	r10, 4
    1aae:	10 c0       	rjmp	.+32     	; 0x1ad0 <vfprintf+0x356>
    1ab0:	b6 01       	movw	r22, r12
    1ab2:	80 e3       	ldi	r24, 0x30	; 48
    1ab4:	90 e0       	ldi	r25, 0x00	; 0
    1ab6:	0e 94 b4 0d 	call	0x1b68	; 0x1b68 <fputc>
    1aba:	a2 fe       	sbrs	r10, 2
    1abc:	17 c0       	rjmp	.+46     	; 0x1aec <vfprintf+0x372>
    1abe:	a1 fc       	sbrc	r10, 1
    1ac0:	03 c0       	rjmp	.+6      	; 0x1ac8 <vfprintf+0x34e>
    1ac2:	88 e7       	ldi	r24, 0x78	; 120
    1ac4:	90 e0       	ldi	r25, 0x00	; 0
    1ac6:	02 c0       	rjmp	.+4      	; 0x1acc <vfprintf+0x352>
    1ac8:	88 e5       	ldi	r24, 0x58	; 88
    1aca:	90 e0       	ldi	r25, 0x00	; 0
    1acc:	b6 01       	movw	r22, r12
    1ace:	0c c0       	rjmp	.+24     	; 0x1ae8 <vfprintf+0x36e>
    1ad0:	8a 2d       	mov	r24, r10
    1ad2:	86 78       	andi	r24, 0x86	; 134
    1ad4:	59 f0       	breq	.+22     	; 0x1aec <vfprintf+0x372>
    1ad6:	a1 fe       	sbrs	r10, 1
    1ad8:	02 c0       	rjmp	.+4      	; 0x1ade <vfprintf+0x364>
    1ada:	8b e2       	ldi	r24, 0x2B	; 43
    1adc:	01 c0       	rjmp	.+2      	; 0x1ae0 <vfprintf+0x366>
    1ade:	80 e2       	ldi	r24, 0x20	; 32
    1ae0:	a7 fc       	sbrc	r10, 7
    1ae2:	8d e2       	ldi	r24, 0x2D	; 45
    1ae4:	b6 01       	movw	r22, r12
    1ae6:	90 e0       	ldi	r25, 0x00	; 0
    1ae8:	0e 94 b4 0d 	call	0x1b68	; 0x1b68 <fputc>
    1aec:	89 14       	cp	r8, r9
    1aee:	38 f4       	brcc	.+14     	; 0x1afe <vfprintf+0x384>
    1af0:	b6 01       	movw	r22, r12
    1af2:	80 e3       	ldi	r24, 0x30	; 48
    1af4:	90 e0       	ldi	r25, 0x00	; 0
    1af6:	0e 94 b4 0d 	call	0x1b68	; 0x1b68 <fputc>
    1afa:	9a 94       	dec	r9
    1afc:	f7 cf       	rjmp	.-18     	; 0x1aec <vfprintf+0x372>
    1afe:	8a 94       	dec	r8
    1b00:	f3 01       	movw	r30, r6
    1b02:	e8 0d       	add	r30, r8
    1b04:	f1 1d       	adc	r31, r1
    1b06:	80 81       	ld	r24, Z
    1b08:	b6 01       	movw	r22, r12
    1b0a:	90 e0       	ldi	r25, 0x00	; 0
    1b0c:	0e 94 b4 0d 	call	0x1b68	; 0x1b68 <fputc>
    1b10:	81 10       	cpse	r8, r1
    1b12:	f5 cf       	rjmp	.-22     	; 0x1afe <vfprintf+0x384>
    1b14:	22 20       	and	r2, r2
    1b16:	09 f4       	brne	.+2      	; 0x1b1a <vfprintf+0x3a0>
    1b18:	42 ce       	rjmp	.-892    	; 0x179e <vfprintf+0x24>
    1b1a:	b6 01       	movw	r22, r12
    1b1c:	80 e2       	ldi	r24, 0x20	; 32
    1b1e:	90 e0       	ldi	r25, 0x00	; 0
    1b20:	0e 94 b4 0d 	call	0x1b68	; 0x1b68 <fputc>
    1b24:	2a 94       	dec	r2
    1b26:	f6 cf       	rjmp	.-20     	; 0x1b14 <vfprintf+0x39a>
    1b28:	f6 01       	movw	r30, r12
    1b2a:	86 81       	ldd	r24, Z+6	; 0x06
    1b2c:	97 81       	ldd	r25, Z+7	; 0x07
    1b2e:	02 c0       	rjmp	.+4      	; 0x1b34 <vfprintf+0x3ba>
    1b30:	8f ef       	ldi	r24, 0xFF	; 255
    1b32:	9f ef       	ldi	r25, 0xFF	; 255
    1b34:	2b 96       	adiw	r28, 0x0b	; 11
    1b36:	e2 e1       	ldi	r30, 0x12	; 18
    1b38:	0c 94 6a 0e 	jmp	0x1cd4	; 0x1cd4 <__epilogue_restores__>

00001b3c <strnlen_P>:
    1b3c:	fc 01       	movw	r30, r24
    1b3e:	05 90       	lpm	r0, Z+
    1b40:	61 50       	subi	r22, 0x01	; 1
    1b42:	70 40       	sbci	r23, 0x00	; 0
    1b44:	01 10       	cpse	r0, r1
    1b46:	d8 f7       	brcc	.-10     	; 0x1b3e <strnlen_P+0x2>
    1b48:	80 95       	com	r24
    1b4a:	90 95       	com	r25
    1b4c:	8e 0f       	add	r24, r30
    1b4e:	9f 1f       	adc	r25, r31
    1b50:	08 95       	ret

00001b52 <strnlen>:
    1b52:	fc 01       	movw	r30, r24
    1b54:	61 50       	subi	r22, 0x01	; 1
    1b56:	70 40       	sbci	r23, 0x00	; 0
    1b58:	01 90       	ld	r0, Z+
    1b5a:	01 10       	cpse	r0, r1
    1b5c:	d8 f7       	brcc	.-10     	; 0x1b54 <strnlen+0x2>
    1b5e:	80 95       	com	r24
    1b60:	90 95       	com	r25
    1b62:	8e 0f       	add	r24, r30
    1b64:	9f 1f       	adc	r25, r31
    1b66:	08 95       	ret

00001b68 <fputc>:
    1b68:	0f 93       	push	r16
    1b6a:	1f 93       	push	r17
    1b6c:	cf 93       	push	r28
    1b6e:	df 93       	push	r29
    1b70:	fb 01       	movw	r30, r22
    1b72:	23 81       	ldd	r18, Z+3	; 0x03
    1b74:	21 fd       	sbrc	r18, 1
    1b76:	03 c0       	rjmp	.+6      	; 0x1b7e <fputc+0x16>
    1b78:	8f ef       	ldi	r24, 0xFF	; 255
    1b7a:	9f ef       	ldi	r25, 0xFF	; 255
    1b7c:	2c c0       	rjmp	.+88     	; 0x1bd6 <fputc+0x6e>
    1b7e:	22 ff       	sbrs	r18, 2
    1b80:	16 c0       	rjmp	.+44     	; 0x1bae <fputc+0x46>
    1b82:	46 81       	ldd	r20, Z+6	; 0x06
    1b84:	57 81       	ldd	r21, Z+7	; 0x07
    1b86:	24 81       	ldd	r18, Z+4	; 0x04
    1b88:	35 81       	ldd	r19, Z+5	; 0x05
    1b8a:	42 17       	cp	r20, r18
    1b8c:	53 07       	cpc	r21, r19
    1b8e:	44 f4       	brge	.+16     	; 0x1ba0 <fputc+0x38>
    1b90:	a0 81       	ld	r26, Z
    1b92:	b1 81       	ldd	r27, Z+1	; 0x01
    1b94:	9d 01       	movw	r18, r26
    1b96:	2f 5f       	subi	r18, 0xFF	; 255
    1b98:	3f 4f       	sbci	r19, 0xFF	; 255
    1b9a:	31 83       	std	Z+1, r19	; 0x01
    1b9c:	20 83       	st	Z, r18
    1b9e:	8c 93       	st	X, r24
    1ba0:	26 81       	ldd	r18, Z+6	; 0x06
    1ba2:	37 81       	ldd	r19, Z+7	; 0x07
    1ba4:	2f 5f       	subi	r18, 0xFF	; 255
    1ba6:	3f 4f       	sbci	r19, 0xFF	; 255
    1ba8:	37 83       	std	Z+7, r19	; 0x07
    1baa:	26 83       	std	Z+6, r18	; 0x06
    1bac:	14 c0       	rjmp	.+40     	; 0x1bd6 <fputc+0x6e>
    1bae:	8b 01       	movw	r16, r22
    1bb0:	ec 01       	movw	r28, r24
    1bb2:	fb 01       	movw	r30, r22
    1bb4:	00 84       	ldd	r0, Z+8	; 0x08
    1bb6:	f1 85       	ldd	r31, Z+9	; 0x09
    1bb8:	e0 2d       	mov	r30, r0
    1bba:	09 95       	icall
    1bbc:	89 2b       	or	r24, r25
    1bbe:	e1 f6       	brne	.-72     	; 0x1b78 <fputc+0x10>
    1bc0:	d8 01       	movw	r26, r16
    1bc2:	16 96       	adiw	r26, 0x06	; 6
    1bc4:	8d 91       	ld	r24, X+
    1bc6:	9c 91       	ld	r25, X
    1bc8:	17 97       	sbiw	r26, 0x07	; 7
    1bca:	01 96       	adiw	r24, 0x01	; 1
    1bcc:	17 96       	adiw	r26, 0x07	; 7
    1bce:	9c 93       	st	X, r25
    1bd0:	8e 93       	st	-X, r24
    1bd2:	16 97       	sbiw	r26, 0x06	; 6
    1bd4:	ce 01       	movw	r24, r28
    1bd6:	df 91       	pop	r29
    1bd8:	cf 91       	pop	r28
    1bda:	1f 91       	pop	r17
    1bdc:	0f 91       	pop	r16
    1bde:	08 95       	ret

00001be0 <__ultoa_invert>:
    1be0:	fa 01       	movw	r30, r20
    1be2:	aa 27       	eor	r26, r26
    1be4:	28 30       	cpi	r18, 0x08	; 8
    1be6:	51 f1       	breq	.+84     	; 0x1c3c <__ultoa_invert+0x5c>
    1be8:	20 31       	cpi	r18, 0x10	; 16
    1bea:	81 f1       	breq	.+96     	; 0x1c4c <__ultoa_invert+0x6c>
    1bec:	e8 94       	clt
    1bee:	6f 93       	push	r22
    1bf0:	6e 7f       	andi	r22, 0xFE	; 254
    1bf2:	6e 5f       	subi	r22, 0xFE	; 254
    1bf4:	7f 4f       	sbci	r23, 0xFF	; 255
    1bf6:	8f 4f       	sbci	r24, 0xFF	; 255
    1bf8:	9f 4f       	sbci	r25, 0xFF	; 255
    1bfa:	af 4f       	sbci	r26, 0xFF	; 255
    1bfc:	b1 e0       	ldi	r27, 0x01	; 1
    1bfe:	3e d0       	rcall	.+124    	; 0x1c7c <__ultoa_invert+0x9c>
    1c00:	b4 e0       	ldi	r27, 0x04	; 4
    1c02:	3c d0       	rcall	.+120    	; 0x1c7c <__ultoa_invert+0x9c>
    1c04:	67 0f       	add	r22, r23
    1c06:	78 1f       	adc	r23, r24
    1c08:	89 1f       	adc	r24, r25
    1c0a:	9a 1f       	adc	r25, r26
    1c0c:	a1 1d       	adc	r26, r1
    1c0e:	68 0f       	add	r22, r24
    1c10:	79 1f       	adc	r23, r25
    1c12:	8a 1f       	adc	r24, r26
    1c14:	91 1d       	adc	r25, r1
    1c16:	a1 1d       	adc	r26, r1
    1c18:	6a 0f       	add	r22, r26
    1c1a:	71 1d       	adc	r23, r1
    1c1c:	81 1d       	adc	r24, r1
    1c1e:	91 1d       	adc	r25, r1
    1c20:	a1 1d       	adc	r26, r1
    1c22:	20 d0       	rcall	.+64     	; 0x1c64 <__ultoa_invert+0x84>
    1c24:	09 f4       	brne	.+2      	; 0x1c28 <__ultoa_invert+0x48>
    1c26:	68 94       	set
    1c28:	3f 91       	pop	r19
    1c2a:	2a e0       	ldi	r18, 0x0A	; 10
    1c2c:	26 9f       	mul	r18, r22
    1c2e:	11 24       	eor	r1, r1
    1c30:	30 19       	sub	r19, r0
    1c32:	30 5d       	subi	r19, 0xD0	; 208
    1c34:	31 93       	st	Z+, r19
    1c36:	de f6       	brtc	.-74     	; 0x1bee <__ultoa_invert+0xe>
    1c38:	cf 01       	movw	r24, r30
    1c3a:	08 95       	ret
    1c3c:	46 2f       	mov	r20, r22
    1c3e:	47 70       	andi	r20, 0x07	; 7
    1c40:	40 5d       	subi	r20, 0xD0	; 208
    1c42:	41 93       	st	Z+, r20
    1c44:	b3 e0       	ldi	r27, 0x03	; 3
    1c46:	0f d0       	rcall	.+30     	; 0x1c66 <__ultoa_invert+0x86>
    1c48:	c9 f7       	brne	.-14     	; 0x1c3c <__ultoa_invert+0x5c>
    1c4a:	f6 cf       	rjmp	.-20     	; 0x1c38 <__ultoa_invert+0x58>
    1c4c:	46 2f       	mov	r20, r22
    1c4e:	4f 70       	andi	r20, 0x0F	; 15
    1c50:	40 5d       	subi	r20, 0xD0	; 208
    1c52:	4a 33       	cpi	r20, 0x3A	; 58
    1c54:	18 f0       	brcs	.+6      	; 0x1c5c <__ultoa_invert+0x7c>
    1c56:	49 5d       	subi	r20, 0xD9	; 217
    1c58:	31 fd       	sbrc	r19, 1
    1c5a:	40 52       	subi	r20, 0x20	; 32
    1c5c:	41 93       	st	Z+, r20
    1c5e:	02 d0       	rcall	.+4      	; 0x1c64 <__ultoa_invert+0x84>
    1c60:	a9 f7       	brne	.-22     	; 0x1c4c <__ultoa_invert+0x6c>
    1c62:	ea cf       	rjmp	.-44     	; 0x1c38 <__ultoa_invert+0x58>
    1c64:	b4 e0       	ldi	r27, 0x04	; 4
    1c66:	a6 95       	lsr	r26
    1c68:	97 95       	ror	r25
    1c6a:	87 95       	ror	r24
    1c6c:	77 95       	ror	r23
    1c6e:	67 95       	ror	r22
    1c70:	ba 95       	dec	r27
    1c72:	c9 f7       	brne	.-14     	; 0x1c66 <__ultoa_invert+0x86>
    1c74:	00 97       	sbiw	r24, 0x00	; 0
    1c76:	61 05       	cpc	r22, r1
    1c78:	71 05       	cpc	r23, r1
    1c7a:	08 95       	ret
    1c7c:	9b 01       	movw	r18, r22
    1c7e:	ac 01       	movw	r20, r24
    1c80:	0a 2e       	mov	r0, r26
    1c82:	06 94       	lsr	r0
    1c84:	57 95       	ror	r21
    1c86:	47 95       	ror	r20
    1c88:	37 95       	ror	r19
    1c8a:	27 95       	ror	r18
    1c8c:	ba 95       	dec	r27
    1c8e:	c9 f7       	brne	.-14     	; 0x1c82 <__ultoa_invert+0xa2>
    1c90:	62 0f       	add	r22, r18
    1c92:	73 1f       	adc	r23, r19
    1c94:	84 1f       	adc	r24, r20
    1c96:	95 1f       	adc	r25, r21
    1c98:	a0 1d       	adc	r26, r0
    1c9a:	08 95       	ret

00001c9c <__prologue_saves__>:
    1c9c:	2f 92       	push	r2
    1c9e:	3f 92       	push	r3
    1ca0:	4f 92       	push	r4
    1ca2:	5f 92       	push	r5
    1ca4:	6f 92       	push	r6
    1ca6:	7f 92       	push	r7
    1ca8:	8f 92       	push	r8
    1caa:	9f 92       	push	r9
    1cac:	af 92       	push	r10
    1cae:	bf 92       	push	r11
    1cb0:	cf 92       	push	r12
    1cb2:	df 92       	push	r13
    1cb4:	ef 92       	push	r14
    1cb6:	ff 92       	push	r15
    1cb8:	0f 93       	push	r16
    1cba:	1f 93       	push	r17
    1cbc:	cf 93       	push	r28
    1cbe:	df 93       	push	r29
    1cc0:	cd b7       	in	r28, 0x3d	; 61
    1cc2:	de b7       	in	r29, 0x3e	; 62
    1cc4:	ca 1b       	sub	r28, r26
    1cc6:	db 0b       	sbc	r29, r27
    1cc8:	0f b6       	in	r0, 0x3f	; 63
    1cca:	f8 94       	cli
    1ccc:	de bf       	out	0x3e, r29	; 62
    1cce:	0f be       	out	0x3f, r0	; 63
    1cd0:	cd bf       	out	0x3d, r28	; 61
    1cd2:	09 94       	ijmp

00001cd4 <__epilogue_restores__>:
    1cd4:	2a 88       	ldd	r2, Y+18	; 0x12
    1cd6:	39 88       	ldd	r3, Y+17	; 0x11
    1cd8:	48 88       	ldd	r4, Y+16	; 0x10
    1cda:	5f 84       	ldd	r5, Y+15	; 0x0f
    1cdc:	6e 84       	ldd	r6, Y+14	; 0x0e
    1cde:	7d 84       	ldd	r7, Y+13	; 0x0d
    1ce0:	8c 84       	ldd	r8, Y+12	; 0x0c
    1ce2:	9b 84       	ldd	r9, Y+11	; 0x0b
    1ce4:	aa 84       	ldd	r10, Y+10	; 0x0a
    1ce6:	b9 84       	ldd	r11, Y+9	; 0x09
    1ce8:	c8 84       	ldd	r12, Y+8	; 0x08
    1cea:	df 80       	ldd	r13, Y+7	; 0x07
    1cec:	ee 80       	ldd	r14, Y+6	; 0x06
    1cee:	fd 80       	ldd	r15, Y+5	; 0x05
    1cf0:	0c 81       	ldd	r16, Y+4	; 0x04
    1cf2:	1b 81       	ldd	r17, Y+3	; 0x03
    1cf4:	aa 81       	ldd	r26, Y+2	; 0x02
    1cf6:	b9 81       	ldd	r27, Y+1	; 0x01
    1cf8:	ce 0f       	add	r28, r30
    1cfa:	d1 1d       	adc	r29, r1
    1cfc:	0f b6       	in	r0, 0x3f	; 63
    1cfe:	f8 94       	cli
    1d00:	de bf       	out	0x3e, r29	; 62
    1d02:	0f be       	out	0x3f, r0	; 63
    1d04:	cd bf       	out	0x3d, r28	; 61
    1d06:	ed 01       	movw	r28, r26
    1d08:	08 95       	ret

00001d0a <_exit>:
    1d0a:	f8 94       	cli

00001d0c <__stop_program>:
    1d0c:	ff cf       	rjmp	.-2      	; 0x1d0c <__stop_program>
